; Listing generated by Microsoft (R) Optimizing Compiler Version 19.44.35220.0 

include listing.inc

INCLUDELIB MSVCRTD
INCLUDELIB OLDNAMES

PUBLIC	_Avx2WmemEnabledWeakValue
PUBLIC	?sum@@3HA					; sum
PUBLIC	?month@@3PAHA					; month
PUBLIC	?vesok@@3_NA					; vesok
;	COMDAT _Avx2WmemEnabledWeakValue
_BSS	SEGMENT
_Avx2WmemEnabledWeakValue DD 01H DUP (?)
_BSS	ENDS
_BSS	SEGMENT
?sum@@3HA DD	01H DUP (?)				; sum
_BSS	ENDS
msvcjmc	SEGMENT
__8C83BECC_concurrencysal@h DB 01H
__608E3340_sal@h DB 01H
__FB67E29A_vadefs@h DB 01H
__1D1B619C_vcruntime@h DB 01H
__F9C62481_xkeycheck@h DB 01H
__3D7FC843_yvals_core@h DB 01H
__735960E1_corecrt@h DB 01H
__CB8A55F3_float@h DB 01H
__30B8F8B3_cfloat DB 01H
__3D1CA2C3_limits@h DB 01H
__56354F6D_climits DB 01H
__2EA5EA2E_vcruntime_new@h DB 01H
__52221516_vcruntime_new_debug@h DB 01H
__15FC02C9_crtdbg@h DB 01H
__09890252_crtdefs@h DB 01H
__99AC0F50_use_ansi@h DB 01H
__649ADB20_yvals@h DB 01H
__1D9A7FA2_corecrt_math@h DB 01H
__2E93F1C0_math@h DB 01H
__211DB995_corecrt_malloc@h DB 01H
__955456CD_stddef@h DB 01H
__99AED4FB_corecrt_search@h DB 01H
__8B813BF6_corecrt_wstdlib@h DB 01H
__E8FB0A68_stdlib@h DB 01H
__D2DA6D9F_cstdlib DB 01H
__62A23D19_xtr1common DB 01H
__47E843D2_intrin0@inl@h DB 01H
__10A4BB59_intrin0@h DB 01H
__02343DF7_cmath DB 01H
__60B45B40_corecrt_stdio_config@h DB 01H
__CFA3741E_corecrt_wstdio@h DB 01H
__B3FE3303_stdio@h DB 01H
__43FC3334_cstdio DB 01H
__13DE2371_errno@h DB 01H
__8C6AE390_vcruntime_string@h DB 01H
__8ACB2152_corecrt_memcpy_s@h DB 01H
__EA6C9D17_corecrt_memory@h DB 01H
__0DF2AF52_corecrt_wstring@h DB 01H
__6E889ECC_string@h DB 01H
__9E48C57F_cstring DB 01H
__8BDC0229_corecrt_wconio@h DB 01H
__108B2620_corecrt_wctype@h DB 01H
__547F429B_corecrt_wdirect@h DB 01H
__260A2221_corecrt_share@h DB 01H
__EB642103_corecrt_wio@h DB 01H
__F49D648E_corecrt_wprocess@h DB 01H
__9E5BC8DA_corecrt_wtime@h DB 01H
__2A5E3E75_types@h DB 01H
__B16B2B9B_stat@h DB 01H
__130964FF_setjmp@h DB 01H
__5C8CA4D3_mmintrin@h DB 01H
__7CD62D9E_malloc@h DB 01H
__9DCE0DC8_xmmintrin@h DB 01H
__F8AC8404_emmintrin@h DB 01H
__270DEC8D_pmmintrin@h DB 01H
__97D49F0F_tmmintrin@h DB 01H
__BEEF8A8C_smmintrin@h DB 01H
__DB8D0340_nmmintrin@h DB 01H
__0E36F90E_wmmintrin@h DB 01H
__C5A2B409_zmmintrin@h DB 01H
__F2B616C3_immintrin@h DB 01H
__4875F786_ammintrin@h DB 01H
__353FD888_intrin@h DB 01H
__4DD8D0FE_wchar@h DB 01H
__D977E567_cwchar DB 01H
__9AB76051_iosfwd DB 01H
__7711B732_cstddef DB 01H
__9645C8FF_initializer_list DB 01H
__836A8CFC_stdint@h DB 01H
__6F848CE2_cstdint DB 01H
__B76FE24A_type_traits DB 01H
__E5D7E814_utility DB 01H
__C92E16D2___msvc_iter_core@hpp DB 01H
__EFB2F401_xutility DB 01H
__FE1E4341_iterator DB 01H
__85852BDB_share@h DB 01H
__729AB2C8___msvc_system_error_abi@hpp DB 01H
__DEDD47CF_cerrno DB 01H
__C071288D_corecrt_terminate@h DB 01H
__19EE6F19_eh@h DB 01H
__5ACC1044_vcruntime_exception@h DB 01H
__C1D66CC4_exception DB 01H
__8BF225E6___msvc_sanitizer_annotate_container@hpp DB 01H
__9C6F385E___msvc_string_view@hpp DB 01H
__565EB5D7_limits DB 01H
__29151002_new DB 01H
__CBDAE012_xatomic@h DB 01H
__8F428BD7_xmemory DB 01H
__FB910D4B_xstring DB 01H
__48985699_stdexcept DB 01H
__7EE71613_xcall_once@h DB 01H
__CC0FCE2F_xerrc@h DB 01H
__CCCF7540___msvc_threads_core@hpp DB 01H
__1FF36214_time@h DB 01H
__C487A1FF_ctime DB 01H
__59761740_xtimec@h DB 01H
__F8E238E3_xthreads@h DB 01H
__3D6BE915_atomic DB 01H
__C1BA0433_system_error DB 01H
__DDC0F04D_vcruntime_typeinfo@h DB 01H
__9F6D0718_typeinfo DB 01H
__EAF0B959_memory DB 01H
__C6B5EE56_xfacet DB 01H
__C70396E3___msvc_xlocinfo_types@hpp DB 01H
__6CD6613D_ctype@h DB 01H
__4C37D493_cctype DB 01H
__FFBDF365_locale@h DB 01H
__4176B14E_clocale DB 01H
__80E4E4D0_xlocinfo DB 01H
__24AF797A_xlocale DB 01H
__B90193C3_xiosbase DB 01H
__4A38EE25_streambuf DB 01H
__BA281F6D_xlocnum DB 01H
__D1D82A14_ios DB 01H
__00DCFE7C___msvc_ostream@hpp DB 01H
__546F9684_istream DB 01H
__37BFA3BE_ostream DB 01H
__8DCB8E1E_iostream DB 01H
__D26B02B0_data@cpp DB 01H
msvcjmc	ENDS
_DATA	SEGMENT
?month@@3PAHA DD 01fH					; month
	DD	01cH
	DD	01fH
	DD	01eH
	DD	01fH
	DD	01eH
	DD	01fH
	DD	01fH
	DD	01eH
	DD	01fH
	DD	01eH
	DD	01fH
?vesok@@3_NA DB	01H					; vesok
_DATA	ENDS
PUBLIC	?__empty_global_delete@@YAXPEAX@Z		; __empty_global_delete
PUBLIC	?__empty_global_delete@@YAXPEAX_K@Z		; __empty_global_delete
PUBLIC	?length@?$_Narrow_char_traits@DH@std@@SA_KQEBD@Z ; std::_Narrow_char_traits<char,int>::length
PUBLIC	?eq_int_type@?$_Narrow_char_traits@DH@std@@SA_NHH@Z ; std::_Narrow_char_traits<char,int>::eq_int_type
PUBLIC	?eof@?$_Narrow_char_traits@DH@std@@SAHXZ	; std::_Narrow_char_traits<char,int>::eof
PUBLIC	?visok@@YAXH@Z					; visok
PUBLIC	?poryd@@YAXHH@Z					; poryd
PUBLIC	??$?6U?$char_traits@D@std@@@std@@YAAEAV?$basic_ostream@DU?$char_traits@D@std@@@0@AEAV10@PEBD@Z ; std::operator<<<std::char_traits<char> >
PUBLIC	??$endl@DU?$char_traits@D@std@@@std@@YAAEAV?$basic_ostream@DU?$char_traits@D@std@@@0@AEAV10@@Z ; std::endl<char,std::char_traits<char> >
PUBLIC	main
PUBLIC	??0_Sentry_base@?$basic_ostream@DU?$char_traits@D@std@@@std@@QEAA@AEAV12@@Z ; std::basic_ostream<char,std::char_traits<char> >::_Sentry_base::_Sentry_base
PUBLIC	??1_Sentry_base@?$basic_ostream@DU?$char_traits@D@std@@@std@@QEAA@XZ ; std::basic_ostream<char,std::char_traits<char> >::_Sentry_base::~_Sentry_base
PUBLIC	??0sentry@?$basic_ostream@DU?$char_traits@D@std@@@std@@QEAA@AEAV12@@Z ; std::basic_ostream<char,std::char_traits<char> >::sentry::sentry
PUBLIC	??1sentry@?$basic_ostream@DU?$char_traits@D@std@@@std@@QEAA@XZ ; std::basic_ostream<char,std::char_traits<char> >::sentry::~sentry
PUBLIC	??Bsentry@?$basic_ostream@DU?$char_traits@D@std@@@std@@QEBA_NXZ ; std::basic_ostream<char,std::char_traits<char> >::sentry::operator bool
PUBLIC	??$addressof@V?$basic_ostream@DU?$char_traits@D@std@@@std@@@std@@YAPEAV?$basic_ostream@DU?$char_traits@D@std@@@0@AEAV10@@Z ; std::addressof<std::basic_ostream<char,std::char_traits<char> > >
PUBLIC	__JustMyCode_Default
PUBLIC	??_C@_0BG@BFIGPPKC@?O?n?p?$PP?d?j?n?b?$PL?i?5?m?n?l?e?p?5?d?m?$PP?3@ ; `string'
PUBLIC	??_C@_07PACEEPLE@RUSSIAN@			; `string'
PUBLIC	??_C@_0CB@GCCJPHFL@?B?b?e?d?h?r?e?5?d?$OA?r?s?5?b?5?t?n?p?l?$OA?r?e?5?D?D?L?L?C?C?C?C@ ; `string'
PUBLIC	??_C@_0CG@MPACKLBC@?B?$PL?5?b?b?e?k?h?5?d?$OA?r?s?5?b?5?m?e?o?p?$OA?b?h?k?$PM?m?n?l?5?t?n@ ; `string'
PUBLIC	??_C@_05PDJBBECF@pause@				; `string'
PUBLIC	??_C@_0BE@CMMACADN@?$NN?r?n?r?5?c?n?d?5?b?h?q?n?j?n?q?m?$PL?i@ ; `string'
PUBLIC	??_C@_0BH@PIOLONLP@?$NN?r?n?r?5?c?n?d?5?m?e?5?b?h?q?n?j?n?q?m?$PL?i@ ; `string'
PUBLIC	??_C@_0BC@OFKDEJIN@?$NP?5?e?y?$LI?5?m?e?5?p?n?d?h?k?q?$PP?4@ ; `string'
PUBLIC	??_C@_0BN@FECGLIGI@C?e?c?n?d?m?$PP?5?l?n?i?5?d?e?m?$PM?5?p?n?f?d?e?m?h?$PP?$CB?$CB?$CB@ ; `string'
PUBLIC	??_C@_05JAEFPJHO@?5?d?m?e?i@			; `string'
PUBLIC	??_C@_0CA@KDJOCHDH@?D?n?5?l?n?e?c?n?5?d?m?$PP?5?p?n?f?d?e?m?h?$PP?5?n?q?r?$OA?k?n?q?$PM?3@ ; `string'
EXTRN	__imp_exit:PROC
EXTRN	__imp_system:PROC
EXTRN	strlen:PROC
EXTRN	?uncaught_exception@std@@YA_NXZ:PROC		; std::uncaught_exception
EXTRN	__imp_setlocale:PROC
EXTRN	__imp_?good@ios_base@std@@QEBA_NXZ:PROC
EXTRN	__imp_?flags@ios_base@std@@QEBAHXZ:PROC
EXTRN	__imp_?width@ios_base@std@@QEBA_JXZ:PROC
EXTRN	__imp_?width@ios_base@std@@QEAA_J_J@Z:PROC
EXTRN	__imp_?sputc@?$basic_streambuf@DU?$char_traits@D@std@@@std@@QEAAHD@Z:PROC
EXTRN	__imp_?sputn@?$basic_streambuf@DU?$char_traits@D@std@@@std@@QEAA_JPEBD_J@Z:PROC
EXTRN	__imp_?setstate@?$basic_ios@DU?$char_traits@D@std@@@std@@QEAAXH_N@Z:PROC
EXTRN	__imp_?tie@?$basic_ios@DU?$char_traits@D@std@@@std@@QEBAPEAV?$basic_ostream@DU?$char_traits@D@std@@@2@XZ:PROC
EXTRN	__imp_?rdbuf@?$basic_ios@DU?$char_traits@D@std@@@std@@QEBAPEAV?$basic_streambuf@DU?$char_traits@D@std@@@2@XZ:PROC
EXTRN	__imp_?fill@?$basic_ios@DU?$char_traits@D@std@@@std@@QEBADXZ:PROC
EXTRN	__imp_?widen@?$basic_ios@DU?$char_traits@D@std@@@std@@QEBADD@Z:PROC
EXTRN	__imp_?_Osfx@?$basic_ostream@DU?$char_traits@D@std@@@std@@QEAAXXZ:PROC
EXTRN	__imp_??6?$basic_ostream@DU?$char_traits@D@std@@@std@@QEAAAEAV01@P6AAEAV01@AEAV01@@Z@Z:PROC
EXTRN	__imp_??6?$basic_ostream@DU?$char_traits@D@std@@@std@@QEAAAEAV01@H@Z:PROC
EXTRN	__imp_?put@?$basic_ostream@DU?$char_traits@D@std@@@std@@QEAAAEAV12@D@Z:PROC
EXTRN	__imp_?flush@?$basic_ostream@DU?$char_traits@D@std@@@std@@QEAAAEAV12@XZ:PROC
EXTRN	__imp_??5?$basic_istream@DU?$char_traits@D@std@@@std@@QEAAAEAV01@AEAH@Z:PROC
EXTRN	_RTC_CheckStackVars:PROC
EXTRN	_RTC_InitBase:PROC
EXTRN	_RTC_Shutdown:PROC
EXTRN	__CheckForDebuggerJustMyCode:PROC
EXTRN	__CxxFrameHandler4:PROC
EXTRN	__GSHandlerCheck:PROC
EXTRN	__GSHandlerCheck_EH4:PROC
EXTRN	__security_check_cookie:PROC
EXTRN	__imp_?cin@std@@3V?$basic_istream@DU?$char_traits@D@std@@@1@A:BYTE
EXTRN	__imp_?cout@std@@3V?$basic_ostream@DU?$char_traits@D@std@@@1@A:BYTE
EXTRN	__security_cookie:QWORD
;	COMDAT pdata
pdata	SEGMENT
$pdata$?__empty_global_delete@@YAXPEAX@Z DD imagerel $LN3
	DD	imagerel $LN3+42
	DD	imagerel $unwind$?__empty_global_delete@@YAXPEAX@Z
pdata	ENDS
;	COMDAT pdata
pdata	SEGMENT
$pdata$?__empty_global_delete@@YAXPEAX_K@Z DD imagerel $LN3
	DD	imagerel $LN3+47
	DD	imagerel $unwind$?__empty_global_delete@@YAXPEAX_K@Z
pdata	ENDS
;	COMDAT pdata
pdata	SEGMENT
$pdata$?length@?$_Narrow_char_traits@DH@std@@SA_KQEBD@Z DD imagerel $LN4
	DD	imagerel $LN4+54
	DD	imagerel $unwind$?length@?$_Narrow_char_traits@DH@std@@SA_KQEBD@Z
pdata	ENDS
;	COMDAT pdata
pdata	SEGMENT
$pdata$?eq_int_type@?$_Narrow_char_traits@DH@std@@SA_NHH@Z DD imagerel $LN6
	DD	imagerel $LN6+88
	DD	imagerel $unwind$?eq_int_type@?$_Narrow_char_traits@DH@std@@SA_NHH@Z
pdata	ENDS
;	COMDAT pdata
pdata	SEGMENT
$pdata$?eof@?$_Narrow_char_traits@DH@std@@SAHXZ DD imagerel $LN4
	DD	imagerel $LN4+43
	DD	imagerel $unwind$?eof@?$_Narrow_char_traits@DH@std@@SAHXZ
pdata	ENDS
;	COMDAT pdata
pdata	SEGMENT
$pdata$?visok@@YAXH@Z DD imagerel $LN5
	DD	imagerel $LN5+111
	DD	imagerel $unwind$?visok@@YAXH@Z
pdata	ENDS
;	COMDAT pdata
pdata	SEGMENT
$pdata$?poryd@@YAXHH@Z DD imagerel $LN6
	DD	imagerel $LN6+180
	DD	imagerel $unwind$?poryd@@YAXHH@Z
pdata	ENDS
;	COMDAT pdata
pdata	SEGMENT
$pdata$??$?6U?$char_traits@D@std@@@std@@YAAEAV?$basic_ostream@DU?$char_traits@D@std@@@0@AEAV10@PEBD@Z DD imagerel $LN25
	DD	imagerel $LN25+945
	DD	imagerel $unwind$??$?6U?$char_traits@D@std@@@std@@YAAEAV?$basic_ostream@DU?$char_traits@D@std@@@0@AEAV10@PEBD@Z
pdata	ENDS
;	COMDAT pdata
pdata	SEGMENT
$pdata$?dtor$0@?0???$?6U?$char_traits@D@std@@@std@@YAAEAV?$basic_ostream@DU?$char_traits@D@std@@@0@AEAV10@PEBD@Z@4HA DD imagerel ?dtor$0@?0???$?6U?$char_traits@D@std@@@std@@YAAEAV?$basic_ostream@DU?$char_traits@D@std@@@0@AEAV10@PEBD@Z@4HA
	DD	imagerel ?dtor$0@?0???$?6U?$char_traits@D@std@@@std@@YAAEAV?$basic_ostream@DU?$char_traits@D@std@@@0@AEAV10@PEBD@Z@4HA+36
	DD	imagerel $unwind$?dtor$0@?0???$?6U?$char_traits@D@std@@@std@@YAAEAV?$basic_ostream@DU?$char_traits@D@std@@@0@AEAV10@PEBD@Z@4HA
pdata	ENDS
;	COMDAT pdata
pdata	SEGMENT
$pdata$?catch$1@?0???$?6U?$char_traits@D@std@@@std@@YAAEAV?$basic_ostream@DU?$char_traits@D@std@@@0@AEAV10@PEBD@Z@4HA DD imagerel ?catch$1@?0???$?6U?$char_traits@D@std@@@std@@YAAEAV?$basic_ostream@DU?$char_traits@D@std@@@0@AEAV10@PEBD@Z@4HA
	DD	imagerel ?catch$1@?0???$?6U?$char_traits@D@std@@@std@@YAAEAV?$basic_ostream@DU?$char_traits@D@std@@@0@AEAV10@PEBD@Z@4HA+80
	DD	imagerel $unwind$?catch$1@?0???$?6U?$char_traits@D@std@@@std@@YAAEAV?$basic_ostream@DU?$char_traits@D@std@@@0@AEAV10@PEBD@Z@4HA
pdata	ENDS
;	COMDAT pdata
pdata	SEGMENT
$pdata$??$endl@DU?$char_traits@D@std@@@std@@YAAEAV?$basic_ostream@DU?$char_traits@D@std@@@0@AEAV10@@Z DD imagerel $LN3
	DD	imagerel $LN3+118
	DD	imagerel $unwind$??$endl@DU?$char_traits@D@std@@@std@@YAAEAV?$basic_ostream@DU?$char_traits@D@std@@@0@AEAV10@@Z
pdata	ENDS
;	COMDAT pdata
pdata	SEGMENT
$pdata$main DD	imagerel $LN21
	DD	imagerel $LN21+1208
	DD	imagerel $unwind$main
pdata	ENDS
;	COMDAT pdata
pdata	SEGMENT
$pdata$??0_Sentry_base@?$basic_ostream@DU?$char_traits@D@std@@@std@@QEAA@AEAV12@@Z DD imagerel $LN4
	DD	imagerel $LN4+150
	DD	imagerel $unwind$??0_Sentry_base@?$basic_ostream@DU?$char_traits@D@std@@@std@@QEAA@AEAV12@@Z
pdata	ENDS
;	COMDAT pdata
pdata	SEGMENT
$pdata$??1_Sentry_base@?$basic_ostream@DU?$char_traits@D@std@@@std@@QEAA@XZ DD imagerel $LN5
	DD	imagerel $LN5+121
	DD	imagerel $unwind$??1_Sentry_base@?$basic_ostream@DU?$char_traits@D@std@@@std@@QEAA@XZ
pdata	ENDS
;	COMDAT pdata
pdata	SEGMENT
$pdata$??0sentry@?$basic_ostream@DU?$char_traits@D@std@@@std@@QEAA@AEAV12@@Z DD imagerel $LN7
	DD	imagerel $LN7+268
	DD	imagerel $unwind$??0sentry@?$basic_ostream@DU?$char_traits@D@std@@@std@@QEAA@AEAV12@@Z
pdata	ENDS
;	COMDAT pdata
pdata	SEGMENT
$pdata$?dtor$0@?0???0sentry@?$basic_ostream@DU?$char_traits@D@std@@@std@@QEAA@AEAV12@@Z@4HA DD imagerel ?dtor$0@?0???0sentry@?$basic_ostream@DU?$char_traits@D@std@@@std@@QEAA@AEAV12@@Z@4HA
	DD	imagerel ?dtor$0@?0???0sentry@?$basic_ostream@DU?$char_traits@D@std@@@std@@QEAA@AEAV12@@Z@4HA+39
	DD	imagerel $unwind$?dtor$0@?0???0sentry@?$basic_ostream@DU?$char_traits@D@std@@@std@@QEAA@AEAV12@@Z@4HA
pdata	ENDS
;	COMDAT pdata
pdata	SEGMENT
$pdata$??1sentry@?$basic_ostream@DU?$char_traits@D@std@@@std@@QEAA@XZ DD imagerel $LN7
	DD	imagerel $LN7+118
	DD	imagerel $unwind$??1sentry@?$basic_ostream@DU?$char_traits@D@std@@@std@@QEAA@XZ
pdata	ENDS
;	COMDAT pdata
pdata	SEGMENT
$pdata$??Bsentry@?$basic_ostream@DU?$char_traits@D@std@@@std@@QEBA_NXZ DD imagerel $LN3
	DD	imagerel $LN3+53
	DD	imagerel $unwind$??Bsentry@?$basic_ostream@DU?$char_traits@D@std@@@std@@QEBA_NXZ
pdata	ENDS
;	COMDAT pdata
pdata	SEGMENT
$pdata$??$addressof@V?$basic_ostream@DU?$char_traits@D@std@@@std@@@std@@YAPEAV?$basic_ostream@DU?$char_traits@D@std@@@0@AEAV10@@Z DD imagerel $LN4
	DD	imagerel $LN4+49
	DD	imagerel $unwind$??$addressof@V?$basic_ostream@DU?$char_traits@D@std@@@std@@@std@@YAPEAV?$basic_ostream@DU?$char_traits@D@std@@@0@AEAV10@@Z
pdata	ENDS
;	COMDAT rtc$TMZ
rtc$TMZ	SEGMENT
_RTC_Shutdown.rtc$TMZ DQ FLAT:_RTC_Shutdown
rtc$TMZ	ENDS
;	COMDAT rtc$IMZ
rtc$IMZ	SEGMENT
_RTC_InitBase.rtc$IMZ DQ FLAT:_RTC_InitBase
rtc$IMZ	ENDS
;	COMDAT ??_C@_0CA@KDJOCHDH@?D?n?5?l?n?e?c?n?5?d?m?$PP?5?p?n?f?d?e?m?h?$PP?5?n?q?r?$OA?k?n?q?$PM?3@
CONST	SEGMENT
??_C@_0CA@KDJOCHDH@?D?n?5?l?n?e?c?n?5?d?m?$PP?5?p?n?f?d?e?m?h?$PP?5?n?q?r?$OA?k?n?q?$PM?3@ DB 0c4H
	DB	0eeH, ' ', 0ecH, 0eeH, 0e5H, 0e3H, 0eeH, ' ', 0e4H, 0edH, 0ffH
	DB	' ', 0f0H, 0eeH, 0e6H, 0e4H, 0e5H, 0edH, 0e8H, 0ffH, ' ', 0eeH
	DB	0f1H, 0f2H, 0e0H, 0ebH, 0eeH, 0f1H, 0fcH, ':', 00H ; `string'
CONST	ENDS
;	COMDAT ??_C@_05JAEFPJHO@?5?d?m?e?i@
CONST	SEGMENT
??_C@_05JAEFPJHO@?5?d?m?e?i@ DB ' ', 0e4H, 0edH, 0e5H, 0e9H, 00H ; `string'
CONST	ENDS
;	COMDAT ??_C@_0BN@FECGLIGI@C?e?c?n?d?m?$PP?5?l?n?i?5?d?e?m?$PM?5?p?n?f?d?e?m?h?$PP?$CB?$CB?$CB@
CONST	SEGMENT
??_C@_0BN@FECGLIGI@C?e?c?n?d?m?$PP?5?l?n?i?5?d?e?m?$PM?5?p?n?f?d?e?m?h?$PP?$CB?$CB?$CB@ DB 'C'
	DB	0e5H, 0e3H, 0eeH, 0e4H, 0edH, 0ffH, ' ', 0ecH, 0eeH, 0e9H, ' ', 0e4H
	DB	0e5H, 0edH, 0fcH, ' ', 0f0H, 0eeH, 0e6H, 0e4H, 0e5H, 0edH, 0e8H
	DB	0ffH, '!!!', 00H				; `string'
CONST	ENDS
;	COMDAT ??_C@_0BC@OFKDEJIN@?$NP?5?e?y?$LI?5?m?e?5?p?n?d?h?k?q?$PP?4@
CONST	SEGMENT
??_C@_0BC@OFKDEJIN@?$NP?5?e?y?$LI?5?m?e?5?p?n?d?h?k?q?$PP?4@ DB 0dfH, ' ', 0e5H
	DB	0f9H, 0b8H, ' ', 0edH, 0e5H, ' ', 0f0H, 0eeH, 0e4H, 0e8H, 0ebH
	DB	0f1H, 0ffH, '.', 00H				; `string'
CONST	ENDS
;	COMDAT ??_C@_0BH@PIOLONLP@?$NN?r?n?r?5?c?n?d?5?m?e?5?b?h?q?n?j?n?q?m?$PL?i@
CONST	SEGMENT
??_C@_0BH@PIOLONLP@?$NN?r?n?r?5?c?n?d?5?m?e?5?b?h?q?n?j?n?q?m?$PL?i@ DB 0ddH
	DB	0f2H, 0eeH, 0f2H, ' ', 0e3H, 0eeH, 0e4H, ' ', 0edH, 0e5H, ' ', 0e2H
	DB	0e8H, 0f1H, 0eeH, 0eaH, 0eeH, 0f1H, 0edH, 0fbH, 0e9H, 00H ; `string'
CONST	ENDS
;	COMDAT ??_C@_0BE@CMMACADN@?$NN?r?n?r?5?c?n?d?5?b?h?q?n?j?n?q?m?$PL?i@
CONST	SEGMENT
??_C@_0BE@CMMACADN@?$NN?r?n?r?5?c?n?d?5?b?h?q?n?j?n?q?m?$PL?i@ DB 0ddH, 0f2H
	DB	0eeH, 0f2H, ' ', 0e3H, 0eeH, 0e4H, ' ', 0e2H, 0e8H, 0f1H, 0eeH
	DB	0eaH, 0eeH, 0f1H, 0edH, 0fbH, 0e9H, 00H	; `string'
CONST	ENDS
;	COMDAT ??_C@_05PDJBBECF@pause@
CONST	SEGMENT
??_C@_05PDJBBECF@pause@ DB 'pause', 00H			; `string'
CONST	ENDS
;	COMDAT ??_C@_0CG@MPACKLBC@?B?$PL?5?b?b?e?k?h?5?d?$OA?r?s?5?b?5?m?e?o?p?$OA?b?h?k?$PM?m?n?l?5?t?n@
CONST	SEGMENT
??_C@_0CG@MPACKLBC@?B?$PL?5?b?b?e?k?h?5?d?$OA?r?s?5?b?5?m?e?o?p?$OA?b?h?k?$PM?m?n?l?5?t?n@ DB 0c2H
	DB	0fbH, ' ', 0e2H, 0e2H, 0e5H, 0ebH, 0e8H, ' ', 0e4H, 0e0H, 0f2H
	DB	0f3H, ' ', 0e2H, ' ', 0edH, 0e5H, 0efH, 0f0H, 0e0H, 0e2H, 0e8H
	DB	0ebH, 0fcH, 0edH, 0eeH, 0ecH, ' ', 0f4H, 0eeH, 0f0H, 0ecH, 0e0H
	DB	0f2H, 0e5H, '.', 00H				; `string'
CONST	ENDS
;	COMDAT ??_C@_0CB@GCCJPHFL@?B?b?e?d?h?r?e?5?d?$OA?r?s?5?b?5?t?n?p?l?$OA?r?e?5?D?D?L?L?C?C?C?C@
CONST	SEGMENT
??_C@_0CB@GCCJPHFL@?B?b?e?d?h?r?e?5?d?$OA?r?s?5?b?5?t?n?p?l?$OA?r?e?5?D?D?L?L?C?C?C?C@ DB 0c2H
	DB	0e2H, 0e5H, 0e4H, 0e8H, 0f2H, 0e5H, ' ', 0e4H, 0e0H, 0f2H, 0f3H
	DB	' ', 0e2H, ' ', 0f4H, 0eeH, 0f0H, 0ecH, 0e0H, 0f2H, 0e5H, ' ', 0c4H
	DB	0c4H, 0ccH, 0ccH, 0c3H, 0c3H, 0c3H, 0c3H, ':', 00H ; `string'
CONST	ENDS
;	COMDAT ??_C@_07PACEEPLE@RUSSIAN@
CONST	SEGMENT
??_C@_07PACEEPLE@RUSSIAN@ DB 'RUSSIAN', 00H		; `string'
CONST	ENDS
;	COMDAT ??_C@_0BG@BFIGPPKC@?O?n?p?$PP?d?j?n?b?$PL?i?5?m?n?l?e?p?5?d?m?$PP?3@
CONST	SEGMENT
??_C@_0BG@BFIGPPKC@?O?n?p?$PP?d?j?n?b?$PL?i?5?m?n?l?e?p?5?d?m?$PP?3@ DB 0cfH
	DB	0eeH, 0f0H, 0ffH, 0e4H, 0eaH, 0eeH, 0e2H, 0fbH, 0e9H, ' ', 0edH
	DB	0eeH, 0ecH, 0e5H, 0f0H, ' ', 0e4H, 0edH, 0ffH, ':', 00H ; `string'
CONST	ENDS
;	COMDAT xdata
xdata	SEGMENT
$unwind$??$addressof@V?$basic_ostream@DU?$char_traits@D@std@@@std@@@std@@YAPEAV?$basic_ostream@DU?$char_traits@D@std@@@0@AEAV10@@Z DD 025051301H
	DD	010e2313H
	DD	07007001dH
	DD	05006H
xdata	ENDS
;	COMDAT xdata
xdata	SEGMENT
$unwind$??Bsentry@?$basic_ostream@DU?$char_traits@D@std@@@std@@QEBA_NXZ DD 025051301H
	DD	010e2313H
	DD	07007001dH
	DD	05006H
xdata	ENDS
;	COMDAT xdata
xdata	SEGMENT
$unwind$??1sentry@?$basic_ostream@DU?$char_traits@D@std@@@std@@QEAA@XZ DD 025051301H
	DD	010e2313H
	DD	070070021H
	DD	05006H
xdata	ENDS
;	COMDAT voltbl
voltbl	SEGMENT
_volmd	DB	00H
	DB	05H
voltbl	ENDS
;	COMDAT xdata
xdata	SEGMENT
$unwind$?dtor$0@?0???0sentry@?$basic_ostream@DU?$char_traits@D@std@@@std@@QEAA@AEAV12@@Z@4HA DD 031001H
	DD	0700c4210H
	DD	0500bH
xdata	ENDS
;	COMDAT xdata
xdata	SEGMENT
$ip2state$??0sentry@?$basic_ostream@DU?$char_traits@D@std@@@std@@QEAA@AEAV12@@Z DB 06H
	DB	00H
	DB	00H
	DB	'r'
	DB	02H
	DB	09H, 03H
	DB	00H
xdata	ENDS
;	COMDAT xdata
xdata	SEGMENT
$stateUnwindMap$??0sentry@?$basic_ostream@DU?$char_traits@D@std@@@std@@QEAA@AEAV12@@Z DB 02H
	DB	0eH
	DD	imagerel ?dtor$0@?0???0sentry@?$basic_ostream@DU?$char_traits@D@std@@@std@@QEAA@AEAV12@@Z@4HA
xdata	ENDS
;	COMDAT xdata
xdata	SEGMENT
$cppxdata$??0sentry@?$basic_ostream@DU?$char_traits@D@std@@@std@@QEAA@AEAV12@@Z DB 028H
	DD	imagerel $stateUnwindMap$??0sentry@?$basic_ostream@DU?$char_traits@D@std@@@std@@QEAA@AEAV12@@Z
	DD	imagerel $ip2state$??0sentry@?$basic_ostream@DU?$char_traits@D@std@@@std@@QEAA@AEAV12@@Z
xdata	ENDS
;	COMDAT xdata
xdata	SEGMENT
$unwind$??0sentry@?$basic_ostream@DU?$char_traits@D@std@@@std@@QEAA@AEAV12@@Z DD 025051811H
	DD	01132318H
	DD	0700c0021H
	DD	0500bH
	DD	imagerel __CxxFrameHandler4
	DD	imagerel $cppxdata$??0sentry@?$basic_ostream@DU?$char_traits@D@std@@@std@@QEAA@AEAV12@@Z
xdata	ENDS
;	COMDAT xdata
xdata	SEGMENT
$ip2state$??1_Sentry_base@?$basic_ostream@DU?$char_traits@D@std@@@std@@QEAA@XZ DB 02H
	DB	00H
	DB	00H
xdata	ENDS
;	COMDAT xdata
xdata	SEGMENT
$cppxdata$??1_Sentry_base@?$basic_ostream@DU?$char_traits@D@std@@@std@@QEAA@XZ DB 060H
	DD	imagerel $ip2state$??1_Sentry_base@?$basic_ostream@DU?$char_traits@D@std@@@std@@QEAA@XZ
xdata	ENDS
;	COMDAT xdata
xdata	SEGMENT
$unwind$??1_Sentry_base@?$basic_ostream@DU?$char_traits@D@std@@@std@@QEAA@XZ DD 025051319H
	DD	010e2313H
	DD	070070021H
	DD	05006H
	DD	imagerel __CxxFrameHandler4
	DD	imagerel $cppxdata$??1_Sentry_base@?$basic_ostream@DU?$char_traits@D@std@@@std@@QEAA@XZ
xdata	ENDS
;	COMDAT xdata
xdata	SEGMENT
$unwind$??0_Sentry_base@?$basic_ostream@DU?$char_traits@D@std@@@std@@QEAA@AEAV12@@Z DD 025051801H
	DD	01132318H
	DD	0700c0021H
	DD	0500bH
xdata	ENDS
;	COMDAT voltbl
voltbl	SEGMENT
_volmd	DW	02aH
	DW	049fH
voltbl	ENDS
;	COMDAT xdata
xdata	SEGMENT
$unwind$main DD	025053119H
	DD	010a230fH
	DD	070030041H
	DD	05002H
	DD	imagerel __GSHandlerCheck
	DD	01f8H
xdata	ENDS
;	COMDAT CONST
CONST	SEGMENT
main$rtcName$0 DB 064H
	DB	061H
	DB	074H
	DB	061H
	DB	00H
	ORG $+11
main$rtcVarDesc DD 044H
	DD	04H
	DQ	FLAT:main$rtcName$0
	ORG $+48
main$rtcFrameData DD 01H
	DD	00H
	DQ	FLAT:main$rtcVarDesc
CONST	ENDS
;	COMDAT xdata
xdata	SEGMENT
$unwind$??$endl@DU?$char_traits@D@std@@@std@@YAAEAV?$basic_ostream@DU?$char_traits@D@std@@@0@AEAV10@@Z DD 025051301H
	DD	010e2313H
	DD	07007001dH
	DD	05006H
xdata	ENDS
;	COMDAT voltbl
voltbl	SEGMENT
_volmd	DB	00H
	DB	05H
voltbl	ENDS
;	COMDAT voltbl
voltbl	SEGMENT
_volmd	DB	00H
	DB	05H
voltbl	ENDS
;	COMDAT voltbl
voltbl	SEGMENT
_volmd	DW	03bH
	DW	0398H
voltbl	ENDS
;	COMDAT xdata
xdata	SEGMENT
$unwind$?catch$1@?0???$?6U?$char_traits@D@std@@@std@@YAAEAV?$basic_ostream@DU?$char_traits@D@std@@@0@AEAV10@PEBD@Z@4HA DD 031001H
	DD	0700c4210H
	DD	0500bH
xdata	ENDS
;	COMDAT xdata
xdata	SEGMENT
$unwind$?dtor$0@?0???$?6U?$char_traits@D@std@@@std@@YAAEAV?$basic_ostream@DU?$char_traits@D@std@@@0@AEAV10@PEBD@Z@4HA DD 031001H
	DD	0700c4210H
	DD	0500bH
xdata	ENDS
;	COMDAT xdata
xdata	SEGMENT
$ip2state$??$?6U?$char_traits@D@std@@@std@@YAAEAV?$basic_ostream@DU?$char_traits@D@std@@@0@AEAV10@PEBD@Z DB 0aH
	DB	00H
	DB	00H
	DB	'E', 04H
	DB	02H
	DB	'<'
	DB	04H
	DB	'!', 08H
	DB	02H
	DB	'v'
	DB	00H
xdata	ENDS
;	COMDAT xdata
xdata	SEGMENT
$handlerMap$??$?6U?$char_traits@D@std@@@std@@YAAEAV?$basic_ostream@DU?$char_traits@D@std@@@0@AEAV10@PEBD@Z DB 02H
	DB	01H
	DB	080H
	DD	imagerel ?catch$1@?0???$?6U?$char_traits@D@std@@@std@@YAAEAV?$basic_ostream@DU?$char_traits@D@std@@@0@AEAV10@PEBD@Z@4HA
xdata	ENDS
;	COMDAT xdata
xdata	SEGMENT
$tryMap$??$?6U?$char_traits@D@std@@@std@@YAAEAV?$basic_ostream@DU?$char_traits@D@std@@@0@AEAV10@PEBD@Z DB 02H
	DB	02H
	DB	02H
	DB	04H
	DD	imagerel $handlerMap$??$?6U?$char_traits@D@std@@@std@@YAAEAV?$basic_ostream@DU?$char_traits@D@std@@@0@AEAV10@PEBD@Z
xdata	ENDS
;	COMDAT xdata
xdata	SEGMENT
$stateUnwindMap$??$?6U?$char_traits@D@std@@@std@@YAAEAV?$basic_ostream@DU?$char_traits@D@std@@@0@AEAV10@PEBD@Z DB 06H
	DB	0eH
	DD	imagerel ?dtor$0@?0???$?6U?$char_traits@D@std@@@std@@YAAEAV?$basic_ostream@DU?$char_traits@D@std@@@0@AEAV10@PEBD@Z@4HA
	DB	028H
	DB	030H
xdata	ENDS
;	COMDAT xdata
xdata	SEGMENT
$cppxdata$??$?6U?$char_traits@D@std@@@std@@YAAEAV?$basic_ostream@DU?$char_traits@D@std@@@0@AEAV10@PEBD@Z DB 038H
	DD	imagerel $stateUnwindMap$??$?6U?$char_traits@D@std@@@std@@YAAEAV?$basic_ostream@DU?$char_traits@D@std@@@0@AEAV10@PEBD@Z
	DD	imagerel $tryMap$??$?6U?$char_traits@D@std@@@std@@YAAEAV?$basic_ostream@DU?$char_traits@D@std@@@0@AEAV10@PEBD@Z
	DD	imagerel $ip2state$??$?6U?$char_traits@D@std@@@std@@YAAEAV?$basic_ostream@DU?$char_traits@D@std@@@0@AEAV10@PEBD@Z
xdata	ENDS
;	COMDAT xdata
xdata	SEGMENT
$unwind$??$?6U?$char_traits@D@std@@@std@@YAAEAV?$basic_ostream@DU?$char_traits@D@std@@@0@AEAV10@PEBD@Z DD 025054219H
	DD	01132318H
	DD	0700c0035H
	DD	0500bH
	DD	imagerel __GSHandlerCheck_EH4
	DD	imagerel $cppxdata$??$?6U?$char_traits@D@std@@@std@@YAAEAV?$basic_ostream@DU?$char_traits@D@std@@@0@AEAV10@PEBD@Z
	DD	0193H
xdata	ENDS
;	COMDAT CONST
CONST	SEGMENT
??$?6U?$char_traits@D@std@@@std@@YAAEAV?$basic_ostream@DU?$char_traits@D@std@@@0@AEAV10@PEBD@Z$rtcName$0 DB 05fH ; std::operator<<<std::char_traits<char> >
	DB	04fH
	DB	06bH
	DB	00H
	ORG $+12
??$?6U?$char_traits@D@std@@@std@@YAAEAV?$basic_ostream@DU?$char_traits@D@std@@@0@AEAV10@PEBD@Z$rtcVarDesc DD 088H ; std::operator<<<std::char_traits<char> >
	DD	010H
	DQ	FLAT:??$?6U?$char_traits@D@std@@@std@@YAAEAV?$basic_ostream@DU?$char_traits@D@std@@@0@AEAV10@PEBD@Z$rtcName$0
	ORG $+48
??$?6U?$char_traits@D@std@@@std@@YAAEAV?$basic_ostream@DU?$char_traits@D@std@@@0@AEAV10@PEBD@Z$rtcFrameData DD 01H ; std::operator<<<std::char_traits<char> >
	DD	00H
	DQ	FLAT:??$?6U?$char_traits@D@std@@@std@@YAAEAV?$basic_ostream@DU?$char_traits@D@std@@@0@AEAV10@PEBD@Z$rtcVarDesc
CONST	ENDS
;	COMDAT xdata
xdata	SEGMENT
$unwind$?poryd@@YAXHH@Z DD 025051601H
	DD	01112316H
	DD	0700a0021H
	DD	05009H
xdata	ENDS
;	COMDAT xdata
xdata	SEGMENT
$unwind$?visok@@YAXH@Z DD 025051201H
	DD	010d2312H
	DD	07006001dH
	DD	05005H
xdata	ENDS
;	COMDAT xdata
xdata	SEGMENT
$unwind$?eof@?$_Narrow_char_traits@DH@std@@SAHXZ DD 025050f01H
	DD	010a230fH
	DD	07003001dH
	DD	05002H
xdata	ENDS
;	COMDAT xdata
xdata	SEGMENT
$unwind$?eq_int_type@?$_Narrow_char_traits@DH@std@@SA_NHH@Z DD 025051601H
	DD	01112316H
	DD	0700a001fH
	DD	05009H
xdata	ENDS
;	COMDAT xdata
xdata	SEGMENT
$unwind$?length@?$_Narrow_char_traits@DH@std@@SA_KQEBD@Z DD 025051301H
	DD	010e2313H
	DD	07007001dH
	DD	05006H
xdata	ENDS
;	COMDAT xdata
xdata	SEGMENT
$unwind$?__empty_global_delete@@YAXPEAX_K@Z DD 025051801H
	DD	01132318H
	DD	0700c001dH
	DD	0500bH
xdata	ENDS
;	COMDAT xdata
xdata	SEGMENT
$unwind$?__empty_global_delete@@YAXPEAX@Z DD 025051301H
	DD	010e2313H
	DD	07007001dH
	DD	05006H
xdata	ENDS
; Function compile flags: /Odt
;	COMDAT __JustMyCode_Default
_TEXT	SEGMENT
__JustMyCode_Default PROC				; COMDAT
  00000	c2 00 00	 ret	 0
__JustMyCode_Default ENDP
_TEXT	ENDS
; Function compile flags: /Odtp /RTCsu /ZI
; File C:\Program Files\Microsoft Visual Studio\2022\Community\VC\Tools\MSVC\14.44.35207\include\type_traits
;	COMDAT ??$addressof@V?$basic_ostream@DU?$char_traits@D@std@@@std@@@std@@YAPEAV?$basic_ostream@DU?$char_traits@D@std@@@0@AEAV10@@Z
_TEXT	SEGMENT
_Val$ = 224
??$addressof@V?$basic_ostream@DU?$char_traits@D@std@@@std@@@std@@YAPEAV?$basic_ostream@DU?$char_traits@D@std@@@0@AEAV10@@Z PROC ; std::addressof<std::basic_ostream<char,std::char_traits<char> > >, COMDAT

; 1524 : _NODISCARD constexpr _Ty* addressof(_Ty& _Val) noexcept {

$LN4:
  00000	48 89 4c 24 08	 mov	 QWORD PTR [rsp+8], rcx
  00005	55		 push	 rbp
  00006	57		 push	 rdi
  00007	48 81 ec e8 00
	00 00		 sub	 rsp, 232		; 000000e8H
  0000e	48 8d 6c 24 20	 lea	 rbp, QWORD PTR [rsp+32]
  00013	48 8d 0d 00 00
	00 00		 lea	 rcx, OFFSET FLAT:__B76FE24A_type_traits
  0001a	e8 00 00 00 00	 call	 __CheckForDebuggerJustMyCode
  0001f	90		 npad	 1

; 1525 :     return __builtin_addressof(_Val);

  00020	48 8b 85 e0 00
	00 00		 mov	 rax, QWORD PTR _Val$[rbp]

; 1526 : }

  00027	48 8d a5 c8 00
	00 00		 lea	 rsp, QWORD PTR [rbp+200]
  0002e	5f		 pop	 rdi
  0002f	5d		 pop	 rbp
  00030	c3		 ret	 0
??$addressof@V?$basic_ostream@DU?$char_traits@D@std@@@std@@@std@@YAPEAV?$basic_ostream@DU?$char_traits@D@std@@@0@AEAV10@@Z ENDP ; std::addressof<std::basic_ostream<char,std::char_traits<char> > >
_TEXT	ENDS
; Function compile flags: /Odtp /RTCsu /ZI
; File C:\Program Files\Microsoft Visual Studio\2022\Community\VC\Tools\MSVC\14.44.35207\include\__msvc_ostream.hpp
;	COMDAT ??Bsentry@?$basic_ostream@DU?$char_traits@D@std@@@std@@QEBA_NXZ
_TEXT	SEGMENT
this$ = 224
??Bsentry@?$basic_ostream@DU?$char_traits@D@std@@@std@@QEBA_NXZ PROC ; std::basic_ostream<char,std::char_traits<char> >::sentry::operator bool, COMDAT

; 122  :         explicit __CLR_OR_THIS_CALL operator bool() const {

$LN3:
  00000	48 89 4c 24 08	 mov	 QWORD PTR [rsp+8], rcx
  00005	55		 push	 rbp
  00006	57		 push	 rdi
  00007	48 81 ec e8 00
	00 00		 sub	 rsp, 232		; 000000e8H
  0000e	48 8d 6c 24 20	 lea	 rbp, QWORD PTR [rsp+32]
  00013	48 8d 0d 00 00
	00 00		 lea	 rcx, OFFSET FLAT:__00DCFE7C___msvc_ostream@hpp
  0001a	e8 00 00 00 00	 call	 __CheckForDebuggerJustMyCode
  0001f	90		 npad	 1

; 123  :             return _Ok;

  00020	48 8b 85 e0 00
	00 00		 mov	 rax, QWORD PTR this$[rbp]
  00027	0f b6 40 08	 movzx	 eax, BYTE PTR [rax+8]

; 124  :         }

  0002b	48 8d a5 c8 00
	00 00		 lea	 rsp, QWORD PTR [rbp+200]
  00032	5f		 pop	 rdi
  00033	5d		 pop	 rbp
  00034	c3		 ret	 0
??Bsentry@?$basic_ostream@DU?$char_traits@D@std@@@std@@QEBA_NXZ ENDP ; std::basic_ostream<char,std::char_traits<char> >::sentry::operator bool
_TEXT	ENDS
; Function compile flags: /Odtp /RTCsu /ZI
; File C:\Program Files\Microsoft Visual Studio\2022\Community\VC\Tools\MSVC\14.44.35207\include\__msvc_ostream.hpp
;	COMDAT ??1sentry@?$basic_ostream@DU?$char_traits@D@std@@@std@@QEAA@XZ
_TEXT	SEGMENT
_Zero_uncaught_exceptions$ = 4
tv72 = 212
this$ = 256
??1sentry@?$basic_ostream@DU?$char_traits@D@std@@@std@@QEAA@XZ PROC ; std::basic_ostream<char,std::char_traits<char> >::sentry::~sentry, COMDAT

; 107  :         __CLR_OR_THIS_CALL ~sentry() noexcept {

$LN7:
  00000	48 89 4c 24 08	 mov	 QWORD PTR [rsp+8], rcx
  00005	55		 push	 rbp
  00006	57		 push	 rdi
  00007	48 81 ec 08 01
	00 00		 sub	 rsp, 264		; 00000108H
  0000e	48 8d 6c 24 20	 lea	 rbp, QWORD PTR [rsp+32]
  00013	48 8d 0d 00 00
	00 00		 lea	 rcx, OFFSET FLAT:__00DCFE7C___msvc_ostream@hpp
  0001a	e8 00 00 00 00	 call	 __CheckForDebuggerJustMyCode
  0001f	90		 npad	 1

; 108  : #if !_HAS_EXCEPTIONS
; 109  :             const bool _Zero_uncaught_exceptions = true;
; 110  : #elif _HAS_DEPRECATED_UNCAUGHT_EXCEPTION
; 111  :             const bool _Zero_uncaught_exceptions = !_STD uncaught_exception(); // TRANSITION, ArchivedOS-12000909

  00020	e8 00 00 00 00	 call	 ?uncaught_exception@std@@YA_NXZ ; std::uncaught_exception
  00025	0f b6 c0	 movzx	 eax, al
  00028	85 c0		 test	 eax, eax
  0002a	75 09		 jne	 SHORT $LN4@sentry
  0002c	c6 85 d4 00 00
	00 01		 mov	 BYTE PTR tv72[rbp], 1
  00033	eb 07		 jmp	 SHORT $LN5@sentry
$LN4@sentry:
  00035	c6 85 d4 00 00
	00 00		 mov	 BYTE PTR tv72[rbp], 0
$LN5@sentry:
  0003c	0f b6 85 d4 00
	00 00		 movzx	 eax, BYTE PTR tv72[rbp]
  00043	88 45 04	 mov	 BYTE PTR _Zero_uncaught_exceptions$[rbp], al

; 112  : #else // ^^^ _HAS_DEPRECATED_UNCAUGHT_EXCEPTION / !_HAS_DEPRECATED_UNCAUGHT_EXCEPTION vvv
; 113  :             const bool _Zero_uncaught_exceptions = _STD uncaught_exceptions() == 0;
; 114  : #endif // ^^^ !_HAS_DEPRECATED_UNCAUGHT_EXCEPTION ^^^
; 115  : 
; 116  :             if (_Zero_uncaught_exceptions) {

  00046	0f b6 45 04	 movzx	 eax, BYTE PTR _Zero_uncaught_exceptions$[rbp]
  0004a	85 c0		 test	 eax, eax
  0004c	74 11		 je	 SHORT $LN2@sentry

; 117  :                 this->_Myostr._Osfx();

  0004e	48 8b 85 00 01
	00 00		 mov	 rax, QWORD PTR this$[rbp]
  00055	48 8b 08	 mov	 rcx, QWORD PTR [rax]
  00058	ff 15 00 00 00
	00		 call	 QWORD PTR __imp_?_Osfx@?$basic_ostream@DU?$char_traits@D@std@@@std@@QEAAXXZ
  0005e	90		 npad	 1
$LN2@sentry:

; 118  :             }
; 119  :         }

  0005f	48 8b 8d 00 01
	00 00		 mov	 rcx, QWORD PTR this$[rbp]
  00066	e8 00 00 00 00	 call	 ??1_Sentry_base@?$basic_ostream@DU?$char_traits@D@std@@@std@@QEAA@XZ ; std::basic_ostream<char,std::char_traits<char> >::_Sentry_base::~_Sentry_base
  0006b	90		 npad	 1
  0006c	48 8d a5 e8 00
	00 00		 lea	 rsp, QWORD PTR [rbp+232]
  00073	5f		 pop	 rdi
  00074	5d		 pop	 rbp
  00075	c3		 ret	 0
??1sentry@?$basic_ostream@DU?$char_traits@D@std@@@std@@QEAA@XZ ENDP ; std::basic_ostream<char,std::char_traits<char> >::sentry::~sentry
_TEXT	ENDS
; Function compile flags: /Odtp /RTCsu /ZI
; File C:\Program Files\Microsoft Visual Studio\2022\Community\VC\Tools\MSVC\14.44.35207\include\__msvc_ostream.hpp
;	COMDAT ??0sentry@?$basic_ostream@DU?$char_traits@D@std@@@std@@QEAA@AEAV12@@Z
_TEXT	SEGMENT
_Tied$ = 8
this$ = 256
_Ostr$ = 264
??0sentry@?$basic_ostream@DU?$char_traits@D@std@@@std@@QEAA@AEAV12@@Z PROC ; std::basic_ostream<char,std::char_traits<char> >::sentry::sentry, COMDAT

; 90   :         explicit __CLR_OR_THIS_CALL sentry(basic_ostream& _Ostr) : _Sentry_base(_Ostr) {

$LN7:
  00000	48 89 54 24 10	 mov	 QWORD PTR [rsp+16], rdx
  00005	48 89 4c 24 08	 mov	 QWORD PTR [rsp+8], rcx
  0000a	55		 push	 rbp
  0000b	57		 push	 rdi
  0000c	48 81 ec 08 01
	00 00		 sub	 rsp, 264		; 00000108H
  00013	48 8d 6c 24 20	 lea	 rbp, QWORD PTR [rsp+32]
  00018	48 8d 0d 00 00
	00 00		 lea	 rcx, OFFSET FLAT:__00DCFE7C___msvc_ostream@hpp
  0001f	e8 00 00 00 00	 call	 __CheckForDebuggerJustMyCode
  00024	90		 npad	 1
  00025	48 8b 95 08 01
	00 00		 mov	 rdx, QWORD PTR _Ostr$[rbp]
  0002c	48 8b 8d 00 01
	00 00		 mov	 rcx, QWORD PTR this$[rbp]
  00033	e8 00 00 00 00	 call	 ??0_Sentry_base@?$basic_ostream@DU?$char_traits@D@std@@@std@@QEAA@AEAV12@@Z ; std::basic_ostream<char,std::char_traits<char> >::_Sentry_base::_Sentry_base
  00038	90		 npad	 1

; 91   :             if (!_Ostr.good()) {

  00039	48 8b 85 08 01
	00 00		 mov	 rax, QWORD PTR _Ostr$[rbp]
  00040	48 8b 00	 mov	 rax, QWORD PTR [rax]
  00043	48 63 40 04	 movsxd	 rax, DWORD PTR [rax+4]
  00047	48 8b 8d 08 01
	00 00		 mov	 rcx, QWORD PTR _Ostr$[rbp]
  0004e	48 03 c8	 add	 rcx, rax
  00051	48 8b c1	 mov	 rax, rcx
  00054	48 8b c8	 mov	 rcx, rax
  00057	ff 15 00 00 00
	00		 call	 QWORD PTR __imp_?good@ios_base@std@@QEBA_NXZ
  0005d	0f b6 c0	 movzx	 eax, al
  00060	85 c0		 test	 eax, eax
  00062	75 10		 jne	 SHORT $LN2@sentry

; 92   :                 _Ok = false;

  00064	48 8b 85 00 01
	00 00		 mov	 rax, QWORD PTR this$[rbp]
  0006b	c6 40 08 00	 mov	 BYTE PTR [rax+8], 0

; 93   :                 return;

  0006f	e9 87 00 00 00	 jmp	 $LN1@sentry
$LN2@sentry:

; 94   :             }
; 95   : 
; 96   :             const auto _Tied = _Ostr.tie();

  00074	48 8b 85 08 01
	00 00		 mov	 rax, QWORD PTR _Ostr$[rbp]
  0007b	48 8b 00	 mov	 rax, QWORD PTR [rax]
  0007e	48 63 40 04	 movsxd	 rax, DWORD PTR [rax+4]
  00082	48 8b 8d 08 01
	00 00		 mov	 rcx, QWORD PTR _Ostr$[rbp]
  00089	48 03 c8	 add	 rcx, rax
  0008c	48 8b c1	 mov	 rax, rcx
  0008f	48 8b c8	 mov	 rcx, rax
  00092	ff 15 00 00 00
	00		 call	 QWORD PTR __imp_?tie@?$basic_ios@DU?$char_traits@D@std@@@std@@QEBAPEAV?$basic_ostream@DU?$char_traits@D@std@@@2@XZ
  00098	48 89 45 08	 mov	 QWORD PTR _Tied$[rbp], rax

; 97   :             if (!_Tied || _Tied == _STD addressof(_Ostr)) {

  0009c	48 83 7d 08 00	 cmp	 QWORD PTR _Tied$[rbp], 0
  000a1	74 12		 je	 SHORT $LN4@sentry
  000a3	48 8b 8d 08 01
	00 00		 mov	 rcx, QWORD PTR _Ostr$[rbp]
  000aa	e8 00 00 00 00	 call	 ??$addressof@V?$basic_ostream@DU?$char_traits@D@std@@@std@@@std@@YAPEAV?$basic_ostream@DU?$char_traits@D@std@@@0@AEAV10@@Z ; std::addressof<std::basic_ostream<char,std::char_traits<char> > >
  000af	48 39 45 08	 cmp	 QWORD PTR _Tied$[rbp], rax
  000b3	75 0d		 jne	 SHORT $LN3@sentry
$LN4@sentry:

; 98   :                 _Ok = true;

  000b5	48 8b 85 00 01
	00 00		 mov	 rax, QWORD PTR this$[rbp]
  000bc	c6 40 08 01	 mov	 BYTE PTR [rax+8], 1

; 99   :                 return;

  000c0	eb 39		 jmp	 SHORT $LN1@sentry
$LN3@sentry:

; 100  :             }
; 101  : 
; 102  :             _Tied->flush();

  000c2	48 8b 4d 08	 mov	 rcx, QWORD PTR _Tied$[rbp]
  000c6	ff 15 00 00 00
	00		 call	 QWORD PTR __imp_?flush@?$basic_ostream@DU?$char_traits@D@std@@@std@@QEAAAEAV12@XZ
  000cc	90		 npad	 1

; 103  :             _Ok = _Ostr.good(); // store test only after flushing tie

  000cd	48 8b 85 08 01
	00 00		 mov	 rax, QWORD PTR _Ostr$[rbp]
  000d4	48 8b 00	 mov	 rax, QWORD PTR [rax]
  000d7	48 63 40 04	 movsxd	 rax, DWORD PTR [rax+4]
  000db	48 8b 8d 08 01
	00 00		 mov	 rcx, QWORD PTR _Ostr$[rbp]
  000e2	48 03 c8	 add	 rcx, rax
  000e5	48 8b c1	 mov	 rax, rcx
  000e8	48 8b c8	 mov	 rcx, rax
  000eb	ff 15 00 00 00
	00		 call	 QWORD PTR __imp_?good@ios_base@std@@QEBA_NXZ
  000f1	48 8b 8d 00 01
	00 00		 mov	 rcx, QWORD PTR this$[rbp]
  000f8	88 41 08	 mov	 BYTE PTR [rcx+8], al
$LN1@sentry:

; 104  :         }

  000fb	48 8b 85 00 01
	00 00		 mov	 rax, QWORD PTR this$[rbp]
  00102	48 8d a5 e8 00
	00 00		 lea	 rsp, QWORD PTR [rbp+232]
  00109	5f		 pop	 rdi
  0010a	5d		 pop	 rbp
  0010b	c3		 ret	 0
??0sentry@?$basic_ostream@DU?$char_traits@D@std@@@std@@QEAA@AEAV12@@Z ENDP ; std::basic_ostream<char,std::char_traits<char> >::sentry::sentry
_TEXT	ENDS
; Function compile flags: /Odtp /RTCsu /ZI
;	COMDAT text$x
text$x	SEGMENT
_Tied$ = 8
this$ = 256
_Ostr$ = 264
?dtor$0@?0???0sentry@?$basic_ostream@DU?$char_traits@D@std@@@std@@QEAA@AEAV12@@Z@4HA PROC ; `std::basic_ostream<char,std::char_traits<char> >::sentry::sentry'::`1'::dtor$0
  00000	48 89 4c 24 08	 mov	 QWORD PTR [rsp+8], rcx
  00005	48 89 54 24 10	 mov	 QWORD PTR [rsp+16], rdx
  0000a	55		 push	 rbp
  0000b	57		 push	 rdi
  0000c	48 83 ec 28	 sub	 rsp, 40			; 00000028H
  00010	48 8d 6a 20	 lea	 rbp, QWORD PTR [rdx+32]
  00014	48 8b 8d 00 01
	00 00		 mov	 rcx, QWORD PTR this$[rbp]
  0001b	e8 00 00 00 00	 call	 ??1_Sentry_base@?$basic_ostream@DU?$char_traits@D@std@@@std@@QEAA@XZ ; std::basic_ostream<char,std::char_traits<char> >::_Sentry_base::~_Sentry_base
  00020	48 83 c4 28	 add	 rsp, 40			; 00000028H
  00024	5f		 pop	 rdi
  00025	5d		 pop	 rbp
  00026	c3		 ret	 0
?dtor$0@?0???0sentry@?$basic_ostream@DU?$char_traits@D@std@@@std@@QEAA@AEAV12@@Z@4HA ENDP ; `std::basic_ostream<char,std::char_traits<char> >::sentry::sentry'::`1'::dtor$0
text$x	ENDS
; Function compile flags: /Odtp /RTCsu /ZI
; File C:\Program Files\Microsoft Visual Studio\2022\Community\VC\Tools\MSVC\14.44.35207\include\__msvc_ostream.hpp
;	COMDAT ??1_Sentry_base@?$basic_ostream@DU?$char_traits@D@std@@@std@@QEAA@XZ
_TEXT	SEGMENT
_Rdbuf$ = 8
tv72 = 216
this$ = 256
??1_Sentry_base@?$basic_ostream@DU?$char_traits@D@std@@@std@@QEAA@XZ PROC ; std::basic_ostream<char,std::char_traits<char> >::_Sentry_base::~_Sentry_base, COMDAT

; 76   :         __CLR_OR_THIS_CALL ~_Sentry_base() noexcept { // destroy after unlocking

$LN5:
  00000	48 89 4c 24 08	 mov	 QWORD PTR [rsp+8], rcx
  00005	55		 push	 rbp
  00006	57		 push	 rdi
  00007	48 81 ec 08 01
	00 00		 sub	 rsp, 264		; 00000108H
  0000e	48 8d 6c 24 20	 lea	 rbp, QWORD PTR [rsp+32]
  00013	48 8d 0d 00 00
	00 00		 lea	 rcx, OFFSET FLAT:__00DCFE7C___msvc_ostream@hpp
  0001a	e8 00 00 00 00	 call	 __CheckForDebuggerJustMyCode
  0001f	90		 npad	 1

; 77   :             const auto _Rdbuf = _Myostr.rdbuf();

  00020	48 8b 85 00 01
	00 00		 mov	 rax, QWORD PTR this$[rbp]
  00027	48 8b 00	 mov	 rax, QWORD PTR [rax]
  0002a	48 89 85 d8 00
	00 00		 mov	 QWORD PTR tv72[rbp], rax
  00031	48 8b 85 d8 00
	00 00		 mov	 rax, QWORD PTR tv72[rbp]
  00038	48 8b 00	 mov	 rax, QWORD PTR [rax]
  0003b	48 63 40 04	 movsxd	 rax, DWORD PTR [rax+4]
  0003f	48 8b 8d d8 00
	00 00		 mov	 rcx, QWORD PTR tv72[rbp]
  00046	48 03 c8	 add	 rcx, rax
  00049	48 8b c1	 mov	 rax, rcx
  0004c	48 8b c8	 mov	 rcx, rax
  0004f	ff 15 00 00 00
	00		 call	 QWORD PTR __imp_?rdbuf@?$basic_ios@DU?$char_traits@D@std@@@std@@QEBAPEAV?$basic_streambuf@DU?$char_traits@D@std@@@2@XZ
  00055	48 89 45 08	 mov	 QWORD PTR _Rdbuf$[rbp], rax

; 78   :             if (_Rdbuf) {

  00059	48 83 7d 08 00	 cmp	 QWORD PTR _Rdbuf$[rbp], 0
  0005e	74 0f		 je	 SHORT $LN2@Sentry_bas

; 79   :                 _Rdbuf->_Unlock();

  00060	48 8b 45 08	 mov	 rax, QWORD PTR _Rdbuf$[rbp]
  00064	48 8b 00	 mov	 rax, QWORD PTR [rax]
  00067	48 8b 4d 08	 mov	 rcx, QWORD PTR _Rdbuf$[rbp]
  0006b	ff 50 10	 call	 QWORD PTR [rax+16]
  0006e	90		 npad	 1
$LN2@Sentry_bas:

; 80   :             }
; 81   :         }

  0006f	48 8d a5 e8 00
	00 00		 lea	 rsp, QWORD PTR [rbp+232]
  00076	5f		 pop	 rdi
  00077	5d		 pop	 rbp
  00078	c3		 ret	 0
??1_Sentry_base@?$basic_ostream@DU?$char_traits@D@std@@@std@@QEAA@XZ ENDP ; std::basic_ostream<char,std::char_traits<char> >::_Sentry_base::~_Sentry_base
_TEXT	ENDS
; Function compile flags: /Odtp /RTCsu /ZI
; File C:\Program Files\Microsoft Visual Studio\2022\Community\VC\Tools\MSVC\14.44.35207\include\__msvc_ostream.hpp
;	COMDAT ??0_Sentry_base@?$basic_ostream@DU?$char_traits@D@std@@@std@@QEAA@AEAV12@@Z
_TEXT	SEGMENT
_Rdbuf$ = 8
tv73 = 216
this$ = 256
_Ostr$ = 264
??0_Sentry_base@?$basic_ostream@DU?$char_traits@D@std@@@std@@QEAA@AEAV12@@Z PROC ; std::basic_ostream<char,std::char_traits<char> >::_Sentry_base::_Sentry_base, COMDAT

; 69   :         __CLR_OR_THIS_CALL _Sentry_base(basic_ostream& _Ostr) : _Myostr(_Ostr) { // lock the stream buffer, if there

$LN4:
  00000	48 89 54 24 10	 mov	 QWORD PTR [rsp+16], rdx
  00005	48 89 4c 24 08	 mov	 QWORD PTR [rsp+8], rcx
  0000a	55		 push	 rbp
  0000b	57		 push	 rdi
  0000c	48 81 ec 08 01
	00 00		 sub	 rsp, 264		; 00000108H
  00013	48 8d 6c 24 20	 lea	 rbp, QWORD PTR [rsp+32]
  00018	48 8d 0d 00 00
	00 00		 lea	 rcx, OFFSET FLAT:__00DCFE7C___msvc_ostream@hpp
  0001f	e8 00 00 00 00	 call	 __CheckForDebuggerJustMyCode
  00024	90		 npad	 1
  00025	48 8b 85 00 01
	00 00		 mov	 rax, QWORD PTR this$[rbp]
  0002c	48 8b 8d 08 01
	00 00		 mov	 rcx, QWORD PTR _Ostr$[rbp]
  00033	48 89 08	 mov	 QWORD PTR [rax], rcx

; 70   :             const auto _Rdbuf = _Myostr.rdbuf();

  00036	48 8b 85 00 01
	00 00		 mov	 rax, QWORD PTR this$[rbp]
  0003d	48 8b 00	 mov	 rax, QWORD PTR [rax]
  00040	48 89 85 d8 00
	00 00		 mov	 QWORD PTR tv73[rbp], rax
  00047	48 8b 85 d8 00
	00 00		 mov	 rax, QWORD PTR tv73[rbp]
  0004e	48 8b 00	 mov	 rax, QWORD PTR [rax]
  00051	48 63 40 04	 movsxd	 rax, DWORD PTR [rax+4]
  00055	48 8b 8d d8 00
	00 00		 mov	 rcx, QWORD PTR tv73[rbp]
  0005c	48 03 c8	 add	 rcx, rax
  0005f	48 8b c1	 mov	 rax, rcx
  00062	48 8b c8	 mov	 rcx, rax
  00065	ff 15 00 00 00
	00		 call	 QWORD PTR __imp_?rdbuf@?$basic_ios@DU?$char_traits@D@std@@@std@@QEBAPEAV?$basic_streambuf@DU?$char_traits@D@std@@@2@XZ
  0006b	48 89 45 08	 mov	 QWORD PTR _Rdbuf$[rbp], rax

; 71   :             if (_Rdbuf) {

  0006f	48 83 7d 08 00	 cmp	 QWORD PTR _Rdbuf$[rbp], 0
  00074	74 0f		 je	 SHORT $LN2@Sentry_bas

; 72   :                 _Rdbuf->_Lock();

  00076	48 8b 45 08	 mov	 rax, QWORD PTR _Rdbuf$[rbp]
  0007a	48 8b 00	 mov	 rax, QWORD PTR [rax]
  0007d	48 8b 4d 08	 mov	 rcx, QWORD PTR _Rdbuf$[rbp]
  00081	ff 50 08	 call	 QWORD PTR [rax+8]
  00084	90		 npad	 1
$LN2@Sentry_bas:

; 73   :             }
; 74   :         }

  00085	48 8b 85 00 01
	00 00		 mov	 rax, QWORD PTR this$[rbp]
  0008c	48 8d a5 e8 00
	00 00		 lea	 rsp, QWORD PTR [rbp+232]
  00093	5f		 pop	 rdi
  00094	5d		 pop	 rbp
  00095	c3		 ret	 0
??0_Sentry_base@?$basic_ostream@DU?$char_traits@D@std@@@std@@QEAA@AEAV12@@Z ENDP ; std::basic_ostream<char,std::char_traits<char> >::_Sentry_base::_Sentry_base
_TEXT	ENDS
; Function compile flags: /Odtp /RTCsu /ZI
; File C:\Users\ppeen\OneDrive\Desktop\unik\1 kurs 2 sem\kpo\lab1\lab_1\data.cpp
;	COMDAT main
_TEXT	SEGMENT
data$ = 36
dr$ = 68
dendr$ = 100
dodr$ = 132
goddata$ = 164
dendata$ = 196
mecyz$ = 228
god$ = 260
__$ArrayPad$ = 472
main	PROC						; COMDAT

; 37   : {

$LN21:
  00000	40 55		 push	 rbp
  00002	57		 push	 rdi
  00003	48 81 ec 08 02
	00 00		 sub	 rsp, 520		; 00000208H
  0000a	48 8d 6c 24 20	 lea	 rbp, QWORD PTR [rsp+32]
  0000f	48 8d 7c 24 20	 lea	 rdi, QWORD PTR [rsp+32]
  00014	b9 4a 00 00 00	 mov	 ecx, 74			; 0000004aH
  00019	b8 cc cc cc cc	 mov	 eax, -858993460		; ccccccccH
  0001e	f3 ab		 rep stosd
  00020	48 8b 05 00 00
	00 00		 mov	 rax, QWORD PTR __security_cookie
  00027	48 33 c5	 xor	 rax, rbp
  0002a	48 89 85 d8 01
	00 00		 mov	 QWORD PTR __$ArrayPad$[rbp], rax
  00031	48 8d 0d 00 00
	00 00		 lea	 rcx, OFFSET FLAT:__D26B02B0_data@cpp
  00038	e8 00 00 00 00	 call	 __CheckForDebuggerJustMyCode
  0003d	90		 npad	 1

; 38   : 	bool poryd1;
; 39   : 	setlocale(LC_CTYPE, "RUSSIAN");

  0003e	48 8d 15 00 00
	00 00		 lea	 rdx, OFFSET FLAT:??_C@_07PACEEPLE@RUSSIAN@
  00045	b9 02 00 00 00	 mov	 ecx, 2
  0004a	ff 15 00 00 00
	00		 call	 QWORD PTR __imp_setlocale
  00050	90		 npad	 1

; 40   : 	int data,dr = 3001, dendr = 30, dodr,goddata=365;

  00051	c7 45 44 b9 0b
	00 00		 mov	 DWORD PTR dr$[rbp], 3001 ; 00000bb9H
  00058	c7 45 64 1e 00
	00 00		 mov	 DWORD PTR dendr$[rbp], 30
  0005f	c7 85 a4 00 00
	00 6d 01 00 00	 mov	 DWORD PTR goddata$[rbp], 365 ; 0000016dH

; 41   : 	cout << "Ââĺäčňĺ äŕňó â ôîđěŕňĺ ÄÄĚĚĂĂĂĂ:";

  00069	48 8d 15 00 00
	00 00		 lea	 rdx, OFFSET FLAT:??_C@_0CB@GCCJPHFL@?B?b?e?d?h?r?e?5?d?$OA?r?s?5?b?5?t?n?p?l?$OA?r?e?5?D?D?L?L?C?C?C?C@
  00070	48 8b 0d 00 00
	00 00		 mov	 rcx, QWORD PTR __imp_?cout@std@@3V?$basic_ostream@DU?$char_traits@D@std@@@1@A
  00077	e8 00 00 00 00	 call	 ??$?6U?$char_traits@D@std@@@std@@YAAEAV?$basic_ostream@DU?$char_traits@D@std@@@0@AEAV10@PEBD@Z ; std::operator<<<std::char_traits<char> >
  0007c	90		 npad	 1

; 42   : 	cin >> data;

  0007d	48 8d 55 24	 lea	 rdx, QWORD PTR data$[rbp]
  00081	48 8b 0d 00 00
	00 00		 mov	 rcx, QWORD PTR __imp_?cin@std@@3V?$basic_istream@DU?$char_traits@D@std@@@1@A
  00088	ff 15 00 00 00
	00		 call	 QWORD PTR __imp_??5?$basic_istream@DU?$char_traits@D@std@@@std@@QEAAAEAV01@AEAH@Z
  0008e	90		 npad	 1

; 43   : 	int dendata = data / 1000000, mecyz = (data/10000)%100, god = data%10000;

  0008f	8b 45 24	 mov	 eax, DWORD PTR data$[rbp]
  00092	99		 cdq
  00093	b9 40 42 0f 00	 mov	 ecx, 1000000		; 000f4240H
  00098	f7 f9		 idiv	 ecx
  0009a	89 85 c4 00 00
	00		 mov	 DWORD PTR dendata$[rbp], eax
  000a0	8b 45 24	 mov	 eax, DWORD PTR data$[rbp]
  000a3	99		 cdq
  000a4	b9 10 27 00 00	 mov	 ecx, 10000		; 00002710H
  000a9	f7 f9		 idiv	 ecx
  000ab	99		 cdq
  000ac	b9 64 00 00 00	 mov	 ecx, 100		; 00000064H
  000b1	f7 f9		 idiv	 ecx
  000b3	8b c2		 mov	 eax, edx
  000b5	89 85 e4 00 00
	00		 mov	 DWORD PTR mecyz$[rbp], eax
  000bb	8b 45 24	 mov	 eax, DWORD PTR data$[rbp]
  000be	99		 cdq
  000bf	b9 10 27 00 00	 mov	 ecx, 10000		; 00002710H
  000c4	f7 f9		 idiv	 ecx
  000c6	8b c2		 mov	 eax, edx
  000c8	89 85 04 01 00
	00		 mov	 DWORD PTR god$[rbp], eax

; 44   : 	if (god <= 2026 && dendata <= 31 && mecyz <= 12 && data < 100000000 && data>1000000)

  000ce	81 bd 04 01 00
	00 ea 07 00 00	 cmp	 DWORD PTR god$[rbp], 2026 ; 000007eaH
  000d8	0f 8f 5d 03 00
	00		 jg	 $LN2@main
  000de	83 bd c4 00 00
	00 1f		 cmp	 DWORD PTR dendata$[rbp], 31
  000e5	0f 8f 50 03 00
	00		 jg	 $LN2@main
  000eb	83 bd e4 00 00
	00 0c		 cmp	 DWORD PTR mecyz$[rbp], 12
  000f2	0f 8f 43 03 00
	00		 jg	 $LN2@main
  000f8	81 7d 24 00 e1
	f5 05		 cmp	 DWORD PTR data$[rbp], 100000000 ; 05f5e100H
  000ff	0f 8d 36 03 00
	00		 jge	 $LN2@main
  00105	81 7d 24 40 42
	0f 00		 cmp	 DWORD PTR data$[rbp], 1000000 ; 000f4240H
  0010c	0f 8e 29 03 00
	00		 jle	 $LN2@main

; 45   : 	{
; 46   : 		visok(god);

  00112	8b 8d 04 01 00
	00		 mov	 ecx, DWORD PTR god$[rbp]
  00118	e8 00 00 00 00	 call	 ?visok@@YAXH@Z		; visok
  0011d	90		 npad	 1

; 47   : 		if (vesok)

  0011e	0f b6 05 00 00
	00 00		 movzx	 eax, BYTE PTR ?vesok@@3_NA ; vesok
  00125	85 c0		 test	 eax, eax
  00127	74 4d		 je	 SHORT $LN4@main

; 48   : 		{
; 49   : 			if (mecyz == 02 && dendata > 29)

  00129	83 bd e4 00 00
	00 02		 cmp	 DWORD PTR mecyz$[rbp], 2
  00130	75 42		 jne	 SHORT $LN6@main
  00132	83 bd c4 00 00
	00 1d		 cmp	 DWORD PTR dendata$[rbp], 29
  00139	7e 39		 jle	 SHORT $LN6@main

; 50   : 			{
; 51   : 				cout << "Âű ââĺëč äŕňó â íĺďđŕâčëüíîě ôîđěŕňĺ." << endl;

  0013b	48 8d 15 00 00
	00 00		 lea	 rdx, OFFSET FLAT:??_C@_0CG@MPACKLBC@?B?$PL?5?b?b?e?k?h?5?d?$OA?r?s?5?b?5?m?e?o?p?$OA?b?h?k?$PM?m?n?l?5?t?n@
  00142	48 8b 0d 00 00
	00 00		 mov	 rcx, QWORD PTR __imp_?cout@std@@3V?$basic_ostream@DU?$char_traits@D@std@@@1@A
  00149	e8 00 00 00 00	 call	 ??$?6U?$char_traits@D@std@@@std@@YAAEAV?$basic_ostream@DU?$char_traits@D@std@@@0@AEAV10@PEBD@Z ; std::operator<<<std::char_traits<char> >
  0014e	48 8d 15 00 00
	00 00		 lea	 rdx, OFFSET FLAT:??$endl@DU?$char_traits@D@std@@@std@@YAAEAV?$basic_ostream@DU?$char_traits@D@std@@@0@AEAV10@@Z ; std::endl<char,std::char_traits<char> >
  00155	48 8b c8	 mov	 rcx, rax
  00158	ff 15 00 00 00
	00		 call	 QWORD PTR __imp_??6?$basic_ostream@DU?$char_traits@D@std@@@std@@QEAAAEAV01@P6AAEAV01@AEAV01@@Z@Z
  0015e	90		 npad	 1

; 52   : 				system("pause"); return 0;

  0015f	48 8d 0d 00 00
	00 00		 lea	 rcx, OFFSET FLAT:??_C@_05PDJBBECF@pause@
  00166	ff 15 00 00 00
	00		 call	 QWORD PTR __imp_system
  0016c	90		 npad	 1
  0016d	33 c0		 xor	 eax, eax
  0016f	e9 15 03 00 00	 jmp	 $LN1@main
$LN6@main:

; 53   : 			}
; 54   : 
; 55   : 		}

  00174	eb 4b		 jmp	 SHORT $LN5@main
$LN4@main:

; 56   : 		else
; 57   : 		{
; 58   : 			if (mecyz == 02 && dendata > 28)

  00176	83 bd e4 00 00
	00 02		 cmp	 DWORD PTR mecyz$[rbp], 2
  0017d	75 42		 jne	 SHORT $LN7@main
  0017f	83 bd c4 00 00
	00 1c		 cmp	 DWORD PTR dendata$[rbp], 28
  00186	7e 39		 jle	 SHORT $LN7@main

; 59   : 			{
; 60   : 				cout << "Âű ââĺëč äŕňó â íĺďđŕâčëüíîě ôîđěŕňĺ." << endl;

  00188	48 8d 15 00 00
	00 00		 lea	 rdx, OFFSET FLAT:??_C@_0CG@MPACKLBC@?B?$PL?5?b?b?e?k?h?5?d?$OA?r?s?5?b?5?m?e?o?p?$OA?b?h?k?$PM?m?n?l?5?t?n@
  0018f	48 8b 0d 00 00
	00 00		 mov	 rcx, QWORD PTR __imp_?cout@std@@3V?$basic_ostream@DU?$char_traits@D@std@@@1@A
  00196	e8 00 00 00 00	 call	 ??$?6U?$char_traits@D@std@@@std@@YAAEAV?$basic_ostream@DU?$char_traits@D@std@@@0@AEAV10@PEBD@Z ; std::operator<<<std::char_traits<char> >
  0019b	48 8d 15 00 00
	00 00		 lea	 rdx, OFFSET FLAT:??$endl@DU?$char_traits@D@std@@@std@@YAAEAV?$basic_ostream@DU?$char_traits@D@std@@@0@AEAV10@@Z ; std::endl<char,std::char_traits<char> >
  001a2	48 8b c8	 mov	 rcx, rax
  001a5	ff 15 00 00 00
	00		 call	 QWORD PTR __imp_??6?$basic_ostream@DU?$char_traits@D@std@@@std@@QEAAAEAV01@P6AAEAV01@AEAV01@@Z@Z
  001ab	90		 npad	 1

; 61   : 				system("pause"); return 0;

  001ac	48 8d 0d 00 00
	00 00		 lea	 rcx, OFFSET FLAT:??_C@_05PDJBBECF@pause@
  001b3	ff 15 00 00 00
	00		 call	 QWORD PTR __imp_system
  001b9	90		 npad	 1
  001ba	33 c0		 xor	 eax, eax
  001bc	e9 c8 02 00 00	 jmp	 $LN1@main
$LN7@main:
$LN5@main:

; 62   : 			}
; 63   : 		}
; 64   : 		if (dendata > month[mecyz - 1])

  001c1	8b 85 e4 00 00
	00		 mov	 eax, DWORD PTR mecyz$[rbp]
  001c7	ff c8		 dec	 eax
  001c9	48 98		 cdqe
  001cb	48 8d 0d 00 00
	00 00		 lea	 rcx, OFFSET FLAT:?month@@3PAHA ; month
  001d2	8b 04 81	 mov	 eax, DWORD PTR [rcx+rax*4]
  001d5	39 85 c4 00 00
	00		 cmp	 DWORD PTR dendata$[rbp], eax
  001db	7e 3e		 jle	 SHORT $LN8@main

; 65   : 		{
; 66   : 			cout << "Âű ââĺëč äŕňó â íĺďđŕâčëüíîě ôîđěŕňĺ." << endl;

  001dd	48 8d 15 00 00
	00 00		 lea	 rdx, OFFSET FLAT:??_C@_0CG@MPACKLBC@?B?$PL?5?b?b?e?k?h?5?d?$OA?r?s?5?b?5?m?e?o?p?$OA?b?h?k?$PM?m?n?l?5?t?n@
  001e4	48 8b 0d 00 00
	00 00		 mov	 rcx, QWORD PTR __imp_?cout@std@@3V?$basic_ostream@DU?$char_traits@D@std@@@1@A
  001eb	e8 00 00 00 00	 call	 ??$?6U?$char_traits@D@std@@@std@@YAAEAV?$basic_ostream@DU?$char_traits@D@std@@@0@AEAV10@PEBD@Z ; std::operator<<<std::char_traits<char> >
  001f0	48 8d 15 00 00
	00 00		 lea	 rdx, OFFSET FLAT:??$endl@DU?$char_traits@D@std@@@std@@YAAEAV?$basic_ostream@DU?$char_traits@D@std@@@0@AEAV10@@Z ; std::endl<char,std::char_traits<char> >
  001f7	48 8b c8	 mov	 rcx, rax
  001fa	ff 15 00 00 00
	00		 call	 QWORD PTR __imp_??6?$basic_ostream@DU?$char_traits@D@std@@@std@@QEAAAEAV01@P6AAEAV01@AEAV01@@Z@Z
  00200	90		 npad	 1

; 67   : 			system("pause"); exit(1);

  00201	48 8d 0d 00 00
	00 00		 lea	 rcx, OFFSET FLAT:??_C@_05PDJBBECF@pause@
  00208	ff 15 00 00 00
	00		 call	 QWORD PTR __imp_system
  0020e	90		 npad	 1
  0020f	b9 01 00 00 00	 mov	 ecx, 1
  00214	ff 15 00 00 00
	00		 call	 QWORD PTR __imp_exit
  0021a	90		 npad	 1
$LN8@main:

; 68   : 		}
; 69   : 
; 70   : 		if (vesok)

  0021b	0f b6 05 00 00
	00 00		 movzx	 eax, BYTE PTR ?vesok@@3_NA ; vesok
  00222	85 c0		 test	 eax, eax
  00224	74 26		 je	 SHORT $LN9@main

; 71   : 		{
; 72   : 			cout << "Ýňîň ăîä âčńîęîńíűé" << endl;

  00226	48 8d 15 00 00
	00 00		 lea	 rdx, OFFSET FLAT:??_C@_0BE@CMMACADN@?$NN?r?n?r?5?c?n?d?5?b?h?q?n?j?n?q?m?$PL?i@
  0022d	48 8b 0d 00 00
	00 00		 mov	 rcx, QWORD PTR __imp_?cout@std@@3V?$basic_ostream@DU?$char_traits@D@std@@@1@A
  00234	e8 00 00 00 00	 call	 ??$?6U?$char_traits@D@std@@@std@@YAAEAV?$basic_ostream@DU?$char_traits@D@std@@@0@AEAV10@PEBD@Z ; std::operator<<<std::char_traits<char> >
  00239	48 8d 15 00 00
	00 00		 lea	 rdx, OFFSET FLAT:??$endl@DU?$char_traits@D@std@@@std@@YAAEAV?$basic_ostream@DU?$char_traits@D@std@@@0@AEAV10@@Z ; std::endl<char,std::char_traits<char> >
  00240	48 8b c8	 mov	 rcx, rax
  00243	ff 15 00 00 00
	00		 call	 QWORD PTR __imp_??6?$basic_ostream@DU?$char_traits@D@std@@@std@@QEAAAEAV01@P6AAEAV01@AEAV01@@Z@Z
  00249	90		 npad	 1

; 73   : 		}

  0024a	eb 24		 jmp	 SHORT $LN10@main
$LN9@main:

; 74   : 		else
; 75   : 		{
; 76   : 			cout << "Ýňîň ăîä íĺ âčńîęîńíűé" << endl;

  0024c	48 8d 15 00 00
	00 00		 lea	 rdx, OFFSET FLAT:??_C@_0BH@PIOLONLP@?$NN?r?n?r?5?c?n?d?5?m?e?5?b?h?q?n?j?n?q?m?$PL?i@
  00253	48 8b 0d 00 00
	00 00		 mov	 rcx, QWORD PTR __imp_?cout@std@@3V?$basic_ostream@DU?$char_traits@D@std@@@1@A
  0025a	e8 00 00 00 00	 call	 ??$?6U?$char_traits@D@std@@@std@@YAAEAV?$basic_ostream@DU?$char_traits@D@std@@@0@AEAV10@PEBD@Z ; std::operator<<<std::char_traits<char> >
  0025f	48 8d 15 00 00
	00 00		 lea	 rdx, OFFSET FLAT:??$endl@DU?$char_traits@D@std@@@std@@YAAEAV?$basic_ostream@DU?$char_traits@D@std@@@0@AEAV10@@Z ; std::endl<char,std::char_traits<char> >
  00266	48 8b c8	 mov	 rcx, rax
  00269	ff 15 00 00 00
	00		 call	 QWORD PTR __imp_??6?$basic_ostream@DU?$char_traits@D@std@@@std@@QEAAAEAV01@P6AAEAV01@AEAV01@@Z@Z
  0026f	90		 npad	 1
$LN10@main:

; 77   : 		}
; 78   : 		poryd(mecyz,dendata);

  00270	8b 95 c4 00 00
	00		 mov	 edx, DWORD PTR dendata$[rbp]
  00276	8b 8d e4 00 00
	00		 mov	 ecx, DWORD PTR mecyz$[rbp]
  0027c	e8 00 00 00 00	 call	 ?poryd@@YAXHH@Z		; poryd
  00281	90		 npad	 1

; 79   : 		if (god <= 2008)

  00282	81 bd 04 01 00
	00 d8 07 00 00	 cmp	 DWORD PTR god$[rbp], 2008 ; 000007d8H
  0028c	7f 4b		 jg	 SHORT $LN11@main

; 80   : 		{
; 81   : 			if (mecyz <= 01)

  0028e	83 bd e4 00 00
	00 01		 cmp	 DWORD PTR mecyz$[rbp], 1
  00295	7f 42		 jg	 SHORT $LN12@main

; 82   : 			{
; 83   : 				if (dendata < 30)

  00297	83 bd c4 00 00
	00 1e		 cmp	 DWORD PTR dendata$[rbp], 30
  0029e	7d 39		 jge	 SHORT $LN13@main

; 84   : 				{
; 85   : 					cout << "ß ĺů¸ íĺ đîäčëń˙." << endl;

  002a0	48 8d 15 00 00
	00 00		 lea	 rdx, OFFSET FLAT:??_C@_0BC@OFKDEJIN@?$NP?5?e?y?$LI?5?m?e?5?p?n?d?h?k?q?$PP?4@
  002a7	48 8b 0d 00 00
	00 00		 mov	 rcx, QWORD PTR __imp_?cout@std@@3V?$basic_ostream@DU?$char_traits@D@std@@@1@A
  002ae	e8 00 00 00 00	 call	 ??$?6U?$char_traits@D@std@@@std@@YAAEAV?$basic_ostream@DU?$char_traits@D@std@@@0@AEAV10@PEBD@Z ; std::operator<<<std::char_traits<char> >
  002b3	48 8d 15 00 00
	00 00		 lea	 rdx, OFFSET FLAT:??$endl@DU?$char_traits@D@std@@@std@@YAAEAV?$basic_ostream@DU?$char_traits@D@std@@@0@AEAV10@@Z ; std::endl<char,std::char_traits<char> >
  002ba	48 8b c8	 mov	 rcx, rax
  002bd	ff 15 00 00 00
	00		 call	 QWORD PTR __imp_??6?$basic_ostream@DU?$char_traits@D@std@@@std@@QEAAAEAV01@P6AAEAV01@AEAV01@@Z@Z
  002c3	90		 npad	 1

; 86   : 					system("pause"); return 0;

  002c4	48 8d 0d 00 00
	00 00		 lea	 rcx, OFFSET FLAT:??_C@_05PDJBBECF@pause@
  002cb	ff 15 00 00 00
	00		 call	 QWORD PTR __imp_system
  002d1	90		 npad	 1
  002d2	33 c0		 xor	 eax, eax
  002d4	e9 b0 01 00 00	 jmp	 $LN1@main
$LN13@main:
$LN12@main:
$LN11@main:

; 87   : 				}
; 88   : 			}
; 89   : 		}
; 90   : 		if (god < 2008)

  002d9	81 bd 04 01 00
	00 d8 07 00 00	 cmp	 DWORD PTR god$[rbp], 2008 ; 000007d8H
  002e3	7d 39		 jge	 SHORT $LN14@main

; 91   : 		{
; 92   : 			cout << "ß ĺů¸ íĺ đîäčëń˙." << endl;

  002e5	48 8d 15 00 00
	00 00		 lea	 rdx, OFFSET FLAT:??_C@_0BC@OFKDEJIN@?$NP?5?e?y?$LI?5?m?e?5?p?n?d?h?k?q?$PP?4@
  002ec	48 8b 0d 00 00
	00 00		 mov	 rcx, QWORD PTR __imp_?cout@std@@3V?$basic_ostream@DU?$char_traits@D@std@@@1@A
  002f3	e8 00 00 00 00	 call	 ??$?6U?$char_traits@D@std@@@std@@YAAEAV?$basic_ostream@DU?$char_traits@D@std@@@0@AEAV10@PEBD@Z ; std::operator<<<std::char_traits<char> >
  002f8	48 8d 15 00 00
	00 00		 lea	 rdx, OFFSET FLAT:??$endl@DU?$char_traits@D@std@@@std@@YAAEAV?$basic_ostream@DU?$char_traits@D@std@@@0@AEAV10@@Z ; std::endl<char,std::char_traits<char> >
  002ff	48 8b c8	 mov	 rcx, rax
  00302	ff 15 00 00 00
	00		 call	 QWORD PTR __imp_??6?$basic_ostream@DU?$char_traits@D@std@@@std@@QEAAAEAV01@P6AAEAV01@AEAV01@@Z@Z
  00308	90		 npad	 1

; 93   : 			system("pause"); return 0;

  00309	48 8d 0d 00 00
	00 00		 lea	 rcx, OFFSET FLAT:??_C@_05PDJBBECF@pause@
  00310	ff 15 00 00 00
	00		 call	 QWORD PTR __imp_system
  00316	90		 npad	 1
  00317	33 c0		 xor	 eax, eax
  00319	e9 6b 01 00 00	 jmp	 $LN1@main
$LN14@main:

; 94   : 		}
; 95   : 
; 96   : 		
; 97   : 
; 98   : 
; 99   : 		if (data / 10000 == dr)

  0031e	8b 45 24	 mov	 eax, DWORD PTR data$[rbp]
  00321	99		 cdq
  00322	b9 10 27 00 00	 mov	 ecx, 10000		; 00002710H
  00327	f7 f9		 idiv	 ecx
  00329	3b 45 44	 cmp	 eax, DWORD PTR dr$[rbp]
  0032c	75 29		 jne	 SHORT $LN15@main

; 100  : 		{
; 101  : 			cout << "Cĺăîäí˙ ěîé äĺíü đîćäĺíč˙!!!" <<endl;

  0032e	48 8d 15 00 00
	00 00		 lea	 rdx, OFFSET FLAT:??_C@_0BN@FECGLIGI@C?e?c?n?d?m?$PP?5?l?n?i?5?d?e?m?$PM?5?p?n?f?d?e?m?h?$PP?$CB?$CB?$CB@
  00335	48 8b 0d 00 00
	00 00		 mov	 rcx, QWORD PTR __imp_?cout@std@@3V?$basic_ostream@DU?$char_traits@D@std@@@1@A
  0033c	e8 00 00 00 00	 call	 ??$?6U?$char_traits@D@std@@@std@@YAAEAV?$basic_ostream@DU?$char_traits@D@std@@@0@AEAV10@PEBD@Z ; std::operator<<<std::char_traits<char> >
  00341	48 8d 15 00 00
	00 00		 lea	 rdx, OFFSET FLAT:??$endl@DU?$char_traits@D@std@@@std@@YAAEAV?$basic_ostream@DU?$char_traits@D@std@@@0@AEAV10@@Z ; std::endl<char,std::char_traits<char> >
  00348	48 8b c8	 mov	 rcx, rax
  0034b	ff 15 00 00 00
	00		 call	 QWORD PTR __imp_??6?$basic_ostream@DU?$char_traits@D@std@@@std@@QEAAAEAV01@P6AAEAV01@AEAV01@@Z@Z
  00351	90		 npad	 1

; 102  : 		}

  00352	e9 e2 00 00 00	 jmp	 $LN16@main
$LN15@main:

; 103  : 		else 
; 104  : 		{
; 105  : 			if (visok)

  00357	48 8d 05 00 00
	00 00		 lea	 rax, OFFSET FLAT:?visok@@YAXH@Z ; visok
  0035e	48 85 c0	 test	 rax, rax
  00361	74 0e		 je	 SHORT $LN17@main

; 106  : 			{
; 107  : 				goddata++;

  00363	8b 85 a4 00 00
	00		 mov	 eax, DWORD PTR goddata$[rbp]
  00369	ff c0		 inc	 eax
  0036b	89 85 a4 00 00
	00		 mov	 DWORD PTR goddata$[rbp], eax
$LN17@main:

; 108  : 
; 109  : 			}
; 110  : 			if (mecyz <= 01 && dendata <= 30)

  00371	83 bd e4 00 00
	00 01		 cmp	 DWORD PTR mecyz$[rbp], 1
  00378	7f 60		 jg	 SHORT $LN18@main
  0037a	83 bd c4 00 00
	00 1e		 cmp	 DWORD PTR dendata$[rbp], 30
  00381	7f 57		 jg	 SHORT $LN18@main

; 111  : 			{
; 112  : 				dodr = dendr - sum;

  00383	8b 05 00 00 00
	00		 mov	 eax, DWORD PTR ?sum@@3HA ; sum
  00389	8b 4d 64	 mov	 ecx, DWORD PTR dendr$[rbp]
  0038c	2b c8		 sub	 ecx, eax
  0038e	8b c1		 mov	 eax, ecx
  00390	89 85 84 00 00
	00		 mov	 DWORD PTR dodr$[rbp], eax

; 113  : 				cout << "Äî ěîĺăî äí˙ đîćäĺíč˙ îńňŕëîńü:" << dodr << " äíĺé"<<endl;

  00396	48 8d 15 00 00
	00 00		 lea	 rdx, OFFSET FLAT:??_C@_0CA@KDJOCHDH@?D?n?5?l?n?e?c?n?5?d?m?$PP?5?p?n?f?d?e?m?h?$PP?5?n?q?r?$OA?k?n?q?$PM?3@
  0039d	48 8b 0d 00 00
	00 00		 mov	 rcx, QWORD PTR __imp_?cout@std@@3V?$basic_ostream@DU?$char_traits@D@std@@@1@A
  003a4	e8 00 00 00 00	 call	 ??$?6U?$char_traits@D@std@@@std@@YAAEAV?$basic_ostream@DU?$char_traits@D@std@@@0@AEAV10@PEBD@Z ; std::operator<<<std::char_traits<char> >
  003a9	8b 95 84 00 00
	00		 mov	 edx, DWORD PTR dodr$[rbp]
  003af	48 8b c8	 mov	 rcx, rax
  003b2	ff 15 00 00 00
	00		 call	 QWORD PTR __imp_??6?$basic_ostream@DU?$char_traits@D@std@@@std@@QEAAAEAV01@H@Z
  003b8	48 8d 15 00 00
	00 00		 lea	 rdx, OFFSET FLAT:??_C@_05JAEFPJHO@?5?d?m?e?i@
  003bf	48 8b c8	 mov	 rcx, rax
  003c2	e8 00 00 00 00	 call	 ??$?6U?$char_traits@D@std@@@std@@YAAEAV?$basic_ostream@DU?$char_traits@D@std@@@0@AEAV10@PEBD@Z ; std::operator<<<std::char_traits<char> >
  003c7	48 8d 15 00 00
	00 00		 lea	 rdx, OFFSET FLAT:??$endl@DU?$char_traits@D@std@@@std@@YAAEAV?$basic_ostream@DU?$char_traits@D@std@@@0@AEAV10@@Z ; std::endl<char,std::char_traits<char> >
  003ce	48 8b c8	 mov	 rcx, rax
  003d1	ff 15 00 00 00
	00		 call	 QWORD PTR __imp_??6?$basic_ostream@DU?$char_traits@D@std@@@std@@QEAAAEAV01@P6AAEAV01@AEAV01@@Z@Z
  003d7	90		 npad	 1

; 114  : 			}

  003d8	eb 5f		 jmp	 SHORT $LN19@main
$LN18@main:

; 115  : 			else
; 116  : 			{
; 117  : 				dodr = dendr + (goddata - sum)-1;

  003da	8b 05 00 00 00
	00		 mov	 eax, DWORD PTR ?sum@@3HA ; sum
  003e0	8b 8d a4 00 00
	00		 mov	 ecx, DWORD PTR goddata$[rbp]
  003e6	2b c8		 sub	 ecx, eax
  003e8	8b c1		 mov	 eax, ecx
  003ea	8b 4d 64	 mov	 ecx, DWORD PTR dendr$[rbp]
  003ed	8d 44 01 ff	 lea	 eax, DWORD PTR [rcx+rax-1]
  003f1	89 85 84 00 00
	00		 mov	 DWORD PTR dodr$[rbp], eax

; 118  : 				cout << "Äî ěîĺăî äí˙ đîćäĺíč˙ îńňŕëîńü:" << dodr << " äíĺé" << endl;

  003f7	48 8d 15 00 00
	00 00		 lea	 rdx, OFFSET FLAT:??_C@_0CA@KDJOCHDH@?D?n?5?l?n?e?c?n?5?d?m?$PP?5?p?n?f?d?e?m?h?$PP?5?n?q?r?$OA?k?n?q?$PM?3@
  003fe	48 8b 0d 00 00
	00 00		 mov	 rcx, QWORD PTR __imp_?cout@std@@3V?$basic_ostream@DU?$char_traits@D@std@@@1@A
  00405	e8 00 00 00 00	 call	 ??$?6U?$char_traits@D@std@@@std@@YAAEAV?$basic_ostream@DU?$char_traits@D@std@@@0@AEAV10@PEBD@Z ; std::operator<<<std::char_traits<char> >
  0040a	8b 95 84 00 00
	00		 mov	 edx, DWORD PTR dodr$[rbp]
  00410	48 8b c8	 mov	 rcx, rax
  00413	ff 15 00 00 00
	00		 call	 QWORD PTR __imp_??6?$basic_ostream@DU?$char_traits@D@std@@@std@@QEAAAEAV01@H@Z
  00419	48 8d 15 00 00
	00 00		 lea	 rdx, OFFSET FLAT:??_C@_05JAEFPJHO@?5?d?m?e?i@
  00420	48 8b c8	 mov	 rcx, rax
  00423	e8 00 00 00 00	 call	 ??$?6U?$char_traits@D@std@@@std@@YAAEAV?$basic_ostream@DU?$char_traits@D@std@@@0@AEAV10@PEBD@Z ; std::operator<<<std::char_traits<char> >
  00428	48 8d 15 00 00
	00 00		 lea	 rdx, OFFSET FLAT:??$endl@DU?$char_traits@D@std@@@std@@YAAEAV?$basic_ostream@DU?$char_traits@D@std@@@0@AEAV10@@Z ; std::endl<char,std::char_traits<char> >
  0042f	48 8b c8	 mov	 rcx, rax
  00432	ff 15 00 00 00
	00		 call	 QWORD PTR __imp_??6?$basic_ostream@DU?$char_traits@D@std@@@std@@QEAAAEAV01@P6AAEAV01@AEAV01@@Z@Z
  00438	90		 npad	 1
$LN19@main:
$LN16@main:

; 119  : 			}
; 120  : 		}
; 121  : 	}

  00439	eb 3e		 jmp	 SHORT $LN3@main
$LN2@main:

; 122  : 	else{
; 123  : 		
; 124  : 			cout << "Âű ââĺëč äŕňó â íĺďđŕâčëüíîě ôîđěŕňĺ." << endl;

  0043b	48 8d 15 00 00
	00 00		 lea	 rdx, OFFSET FLAT:??_C@_0CG@MPACKLBC@?B?$PL?5?b?b?e?k?h?5?d?$OA?r?s?5?b?5?m?e?o?p?$OA?b?h?k?$PM?m?n?l?5?t?n@
  00442	48 8b 0d 00 00
	00 00		 mov	 rcx, QWORD PTR __imp_?cout@std@@3V?$basic_ostream@DU?$char_traits@D@std@@@1@A
  00449	e8 00 00 00 00	 call	 ??$?6U?$char_traits@D@std@@@std@@YAAEAV?$basic_ostream@DU?$char_traits@D@std@@@0@AEAV10@PEBD@Z ; std::operator<<<std::char_traits<char> >
  0044e	48 8d 15 00 00
	00 00		 lea	 rdx, OFFSET FLAT:??$endl@DU?$char_traits@D@std@@@std@@YAAEAV?$basic_ostream@DU?$char_traits@D@std@@@0@AEAV10@@Z ; std::endl<char,std::char_traits<char> >
  00455	48 8b c8	 mov	 rcx, rax
  00458	ff 15 00 00 00
	00		 call	 QWORD PTR __imp_??6?$basic_ostream@DU?$char_traits@D@std@@@std@@QEAAAEAV01@P6AAEAV01@AEAV01@@Z@Z
  0045e	90		 npad	 1

; 125  : 			system("pause"); exit(1);

  0045f	48 8d 0d 00 00
	00 00		 lea	 rcx, OFFSET FLAT:??_C@_05PDJBBECF@pause@
  00466	ff 15 00 00 00
	00		 call	 QWORD PTR __imp_system
  0046c	90		 npad	 1
  0046d	b9 01 00 00 00	 mov	 ecx, 1
  00472	ff 15 00 00 00
	00		 call	 QWORD PTR __imp_exit
  00478	90		 npad	 1
$LN3@main:

; 126  : 		
; 127  : 	}
; 128  : 	
; 129  : 	system("pause"); return 0;

  00479	48 8d 0d 00 00
	00 00		 lea	 rcx, OFFSET FLAT:??_C@_05PDJBBECF@pause@
  00480	ff 15 00 00 00
	00		 call	 QWORD PTR __imp_system
  00486	90		 npad	 1
  00487	33 c0		 xor	 eax, eax
$LN1@main:
$LN20@main:

; 130  : 
; 131  : }

  00489	48 8b f8	 mov	 rdi, rax
  0048c	48 8d 4d e0	 lea	 rcx, QWORD PTR [rbp-32]
  00490	48 8d 15 00 00
	00 00		 lea	 rdx, OFFSET FLAT:main$rtcFrameData
  00497	e8 00 00 00 00	 call	 _RTC_CheckStackVars
  0049c	48 8b c7	 mov	 rax, rdi
  0049f	48 8b 8d d8 01
	00 00		 mov	 rcx, QWORD PTR __$ArrayPad$[rbp]
  004a6	48 33 cd	 xor	 rcx, rbp
  004a9	e8 00 00 00 00	 call	 __security_check_cookie
  004ae	48 8d a5 e8 01
	00 00		 lea	 rsp, QWORD PTR [rbp+488]
  004b5	5f		 pop	 rdi
  004b6	5d		 pop	 rbp
  004b7	c3		 ret	 0
main	ENDP
_TEXT	ENDS
; Function compile flags: /Odtp /RTCsu /ZI
; File C:\Program Files\Microsoft Visual Studio\2022\Community\VC\Tools\MSVC\14.44.35207\include\__msvc_ostream.hpp
;	COMDAT ??$endl@DU?$char_traits@D@std@@@std@@YAAEAV?$basic_ostream@DU?$char_traits@D@std@@@0@AEAV10@@Z
_TEXT	SEGMENT
_Ostr$ = 224
??$endl@DU?$char_traits@D@std@@@std@@YAAEAV?$basic_ostream@DU?$char_traits@D@std@@@0@AEAV10@@Z PROC ; std::endl<char,std::char_traits<char> >, COMDAT

; 1012 :     basic_ostream<_Elem, _Traits>& _Ostr) { // insert newline and flush stream

$LN3:
  00000	48 89 4c 24 08	 mov	 QWORD PTR [rsp+8], rcx
  00005	55		 push	 rbp
  00006	57		 push	 rdi
  00007	48 81 ec e8 00
	00 00		 sub	 rsp, 232		; 000000e8H
  0000e	48 8d 6c 24 20	 lea	 rbp, QWORD PTR [rsp+32]
  00013	48 8d 0d 00 00
	00 00		 lea	 rcx, OFFSET FLAT:__00DCFE7C___msvc_ostream@hpp
  0001a	e8 00 00 00 00	 call	 __CheckForDebuggerJustMyCode
  0001f	90		 npad	 1

; 1013 :     _Ostr.put(_Ostr.widen('\n'));

  00020	48 8b 85 e0 00
	00 00		 mov	 rax, QWORD PTR _Ostr$[rbp]
  00027	48 8b 00	 mov	 rax, QWORD PTR [rax]
  0002a	48 63 40 04	 movsxd	 rax, DWORD PTR [rax+4]
  0002e	48 8b 8d e0 00
	00 00		 mov	 rcx, QWORD PTR _Ostr$[rbp]
  00035	48 03 c8	 add	 rcx, rax
  00038	48 8b c1	 mov	 rax, rcx
  0003b	b2 0a		 mov	 dl, 10
  0003d	48 8b c8	 mov	 rcx, rax
  00040	ff 15 00 00 00
	00		 call	 QWORD PTR __imp_?widen@?$basic_ios@DU?$char_traits@D@std@@@std@@QEBADD@Z
  00046	0f b6 d0	 movzx	 edx, al
  00049	48 8b 8d e0 00
	00 00		 mov	 rcx, QWORD PTR _Ostr$[rbp]
  00050	ff 15 00 00 00
	00		 call	 QWORD PTR __imp_?put@?$basic_ostream@DU?$char_traits@D@std@@@std@@QEAAAEAV12@D@Z
  00056	90		 npad	 1

; 1014 :     _Ostr.flush();

  00057	48 8b 8d e0 00
	00 00		 mov	 rcx, QWORD PTR _Ostr$[rbp]
  0005e	ff 15 00 00 00
	00		 call	 QWORD PTR __imp_?flush@?$basic_ostream@DU?$char_traits@D@std@@@std@@QEAAAEAV12@XZ
  00064	90		 npad	 1

; 1015 :     return _Ostr;

  00065	48 8b 85 e0 00
	00 00		 mov	 rax, QWORD PTR _Ostr$[rbp]

; 1016 : }

  0006c	48 8d a5 c8 00
	00 00		 lea	 rsp, QWORD PTR [rbp+200]
  00073	5f		 pop	 rdi
  00074	5d		 pop	 rbp
  00075	c3		 ret	 0
??$endl@DU?$char_traits@D@std@@@std@@YAAEAV?$basic_ostream@DU?$char_traits@D@std@@@0@AEAV10@@Z ENDP ; std::endl<char,std::char_traits<char> >
_TEXT	ENDS
; Function compile flags: /Odtp /RTCsu /ZI
; File C:\Program Files\Microsoft Visual Studio\2022\Community\VC\Tools\MSVC\14.44.35207\include\__msvc_ostream.hpp
;	COMDAT ??$?6U?$char_traits@D@std@@@std@@YAAEAV?$basic_ostream@DU?$char_traits@D@std@@@0@AEAV10@PEBD@Z
_TEXT	SEGMENT
_State$ = 4
_Count$ = 40
_Pad$ = 72
_Ok$ = 104
$T4 = 344
tv283 = 356
tv285 = 356
tv137 = 360
tv139 = 360
tv295 = 360
tv296 = 360
__$ArrayPad$ = 368
_Ostr$ = 416
_Val$ = 424
??$?6U?$char_traits@D@std@@@std@@YAAEAV?$basic_ostream@DU?$char_traits@D@std@@@0@AEAV10@PEBD@Z PROC ; std::operator<<<std::char_traits<char> >, COMDAT

; 768  : basic_ostream<char, _Traits>& operator<<(basic_ostream<char, _Traits>& _Ostr, const char* _Val) {

$LN25:
  00000	48 89 54 24 10	 mov	 QWORD PTR [rsp+16], rdx
  00005	48 89 4c 24 08	 mov	 QWORD PTR [rsp+8], rcx
  0000a	55		 push	 rbp
  0000b	57		 push	 rdi
  0000c	48 81 ec a8 01
	00 00		 sub	 rsp, 424		; 000001a8H
  00013	48 8d 6c 24 20	 lea	 rbp, QWORD PTR [rsp+32]
  00018	48 8d 7c 24 20	 lea	 rdi, QWORD PTR [rsp+32]
  0001d	b9 32 00 00 00	 mov	 ecx, 50			; 00000032H
  00022	b8 cc cc cc cc	 mov	 eax, -858993460		; ccccccccH
  00027	f3 ab		 rep stosd
  00029	48 8b 8c 24 c8
	01 00 00	 mov	 rcx, QWORD PTR [rsp+456]
  00031	48 8b 05 00 00
	00 00		 mov	 rax, QWORD PTR __security_cookie
  00038	48 33 c5	 xor	 rax, rbp
  0003b	48 89 85 70 01
	00 00		 mov	 QWORD PTR __$ArrayPad$[rbp], rax
  00042	48 8d 0d 00 00
	00 00		 lea	 rcx, OFFSET FLAT:__00DCFE7C___msvc_ostream@hpp
  00049	e8 00 00 00 00	 call	 __CheckForDebuggerJustMyCode
  0004e	90		 npad	 1

; 769  :     // insert NTBS into char stream
; 770  :     using _Elem = char;
; 771  :     using _Myos = basic_ostream<_Elem, _Traits>;
; 772  : 
; 773  :     ios_base::iostate _State = ios_base::goodbit;

  0004f	c7 45 04 00 00
	00 00		 mov	 DWORD PTR _State$[rbp], 0

; 774  :     streamsize _Count        = static_cast<streamsize>(_Traits::length(_Val));

  00056	48 8b 8d a8 01
	00 00		 mov	 rcx, QWORD PTR _Val$[rbp]
  0005d	e8 00 00 00 00	 call	 ?length@?$_Narrow_char_traits@DH@std@@SA_KQEBD@Z ; std::_Narrow_char_traits<char,int>::length
  00062	48 89 45 28	 mov	 QWORD PTR _Count$[rbp], rax

; 775  :     streamsize _Pad          = _Ostr.width() <= 0 || _Ostr.width() <= _Count ? 0 : _Ostr.width() - _Count;

  00066	48 8b 85 a0 01
	00 00		 mov	 rax, QWORD PTR _Ostr$[rbp]
  0006d	48 8b 00	 mov	 rax, QWORD PTR [rax]
  00070	48 63 40 04	 movsxd	 rax, DWORD PTR [rax+4]
  00074	48 8b 8d a0 01
	00 00		 mov	 rcx, QWORD PTR _Ostr$[rbp]
  0007b	48 03 c8	 add	 rcx, rax
  0007e	48 8b c1	 mov	 rax, rcx
  00081	48 8b c8	 mov	 rcx, rax
  00084	ff 15 00 00 00
	00		 call	 QWORD PTR __imp_?width@ios_base@std@@QEBA_JXZ
  0008a	48 85 c0	 test	 rax, rax
  0008d	7e 5b		 jle	 SHORT $LN17@operator
  0008f	48 8b 85 a0 01
	00 00		 mov	 rax, QWORD PTR _Ostr$[rbp]
  00096	48 8b 00	 mov	 rax, QWORD PTR [rax]
  00099	48 63 40 04	 movsxd	 rax, DWORD PTR [rax+4]
  0009d	48 8b 8d a0 01
	00 00		 mov	 rcx, QWORD PTR _Ostr$[rbp]
  000a4	48 03 c8	 add	 rcx, rax
  000a7	48 8b c1	 mov	 rax, rcx
  000aa	48 8b c8	 mov	 rcx, rax
  000ad	ff 15 00 00 00
	00		 call	 QWORD PTR __imp_?width@ios_base@std@@QEBA_JXZ
  000b3	48 3b 45 28	 cmp	 rax, QWORD PTR _Count$[rbp]
  000b7	7e 31		 jle	 SHORT $LN17@operator
  000b9	48 8b 85 a0 01
	00 00		 mov	 rax, QWORD PTR _Ostr$[rbp]
  000c0	48 8b 00	 mov	 rax, QWORD PTR [rax]
  000c3	48 63 40 04	 movsxd	 rax, DWORD PTR [rax+4]
  000c7	48 8b 8d a0 01
	00 00		 mov	 rcx, QWORD PTR _Ostr$[rbp]
  000ce	48 03 c8	 add	 rcx, rax
  000d1	48 8b c1	 mov	 rax, rcx
  000d4	48 8b c8	 mov	 rcx, rax
  000d7	ff 15 00 00 00
	00		 call	 QWORD PTR __imp_?width@ios_base@std@@QEBA_JXZ
  000dd	48 2b 45 28	 sub	 rax, QWORD PTR _Count$[rbp]
  000e1	48 89 85 68 01
	00 00		 mov	 QWORD PTR tv137[rbp], rax
  000e8	eb 0b		 jmp	 SHORT $LN18@operator
$LN17@operator:
  000ea	48 c7 85 68 01
	00 00 00 00 00
	00		 mov	 QWORD PTR tv137[rbp], 0
$LN18@operator:
  000f5	48 8b 85 68 01
	00 00		 mov	 rax, QWORD PTR tv137[rbp]
  000fc	48 89 45 48	 mov	 QWORD PTR _Pad$[rbp], rax

; 776  :     const typename _Myos::sentry _Ok(_Ostr);

  00100	48 8b 95 a0 01
	00 00		 mov	 rdx, QWORD PTR _Ostr$[rbp]
  00107	48 8d 4d 68	 lea	 rcx, QWORD PTR _Ok$[rbp]
  0010b	e8 00 00 00 00	 call	 ??0sentry@?$basic_ostream@DU?$char_traits@D@std@@@std@@QEAA@AEAV12@@Z ; std::basic_ostream<char,std::char_traits<char> >::sentry::sentry
  00110	90		 npad	 1

; 777  : 
; 778  :     if (!_Ok) {

  00111	48 8d 4d 68	 lea	 rcx, QWORD PTR _Ok$[rbp]
  00115	e8 00 00 00 00	 call	 ??Bsentry@?$basic_ostream@DU?$char_traits@D@std@@@std@@QEBA_NXZ ; std::basic_ostream<char,std::char_traits<char> >::sentry::operator bool
  0011a	0f b6 c0	 movzx	 eax, al
  0011d	85 c0		 test	 eax, eax
  0011f	75 0e		 jne	 SHORT $LN8@operator

; 779  :         _State |= ios_base::badbit;

  00121	8b 45 04	 mov	 eax, DWORD PTR _State$[rbp]
  00124	83 c8 04	 or	 eax, 4
  00127	89 45 04	 mov	 DWORD PTR _State$[rbp], eax

; 780  :     } else { // state okay, insert

  0012a	e9 0a 02 00 00	 jmp	 $LN9@operator
$LN8@operator:

; 781  :         _TRY_IO_BEGIN
; 782  :         if ((_Ostr.flags() & ios_base::adjustfield) != ios_base::left) {

  0012f	48 8b 85 a0 01
	00 00		 mov	 rax, QWORD PTR _Ostr$[rbp]
  00136	48 8b 00	 mov	 rax, QWORD PTR [rax]
  00139	48 63 40 04	 movsxd	 rax, DWORD PTR [rax+4]
  0013d	48 8b 8d a0 01
	00 00		 mov	 rcx, QWORD PTR _Ostr$[rbp]
  00144	48 03 c8	 add	 rcx, rax
  00147	48 8b c1	 mov	 rax, rcx
  0014a	48 8b c8	 mov	 rcx, rax
  0014d	ff 15 00 00 00
	00		 call	 QWORD PTR __imp_?flags@ios_base@std@@QEBAHXZ
  00153	25 c0 01 00 00	 and	 eax, 448		; 000001c0H
  00158	83 f8 40	 cmp	 eax, 64			; 00000040H
  0015b	0f 84 a5 00 00
	00		 je	 $LN11@operator

; 783  :             for (; 0 < _Pad; --_Pad) { // pad on left

  00161	eb 0b		 jmp	 SHORT $LN4@operator
$LN2@operator:
  00163	48 8b 45 48	 mov	 rax, QWORD PTR _Pad$[rbp]
  00167	48 ff c8	 dec	 rax
  0016a	48 89 45 48	 mov	 QWORD PTR _Pad$[rbp], rax
$LN4@operator:
  0016e	48 83 7d 48 00	 cmp	 QWORD PTR _Pad$[rbp], 0
  00173	0f 8e 8d 00 00
	00		 jle	 $LN11@operator

; 784  :                 if (_Traits::eq_int_type(_Traits::eof(), _Ostr.rdbuf()->sputc(_Ostr.fill()))) {

  00179	48 8b 85 a0 01
	00 00		 mov	 rax, QWORD PTR _Ostr$[rbp]
  00180	48 8b 00	 mov	 rax, QWORD PTR [rax]
  00183	48 63 40 04	 movsxd	 rax, DWORD PTR [rax+4]
  00187	48 8b 8d a0 01
	00 00		 mov	 rcx, QWORD PTR _Ostr$[rbp]
  0018e	48 03 c8	 add	 rcx, rax
  00191	48 8b c1	 mov	 rax, rcx
  00194	48 8b c8	 mov	 rcx, rax
  00197	ff 15 00 00 00
	00		 call	 QWORD PTR __imp_?fill@?$basic_ios@DU?$char_traits@D@std@@@std@@QEBADXZ
  0019d	88 85 64 01 00
	00		 mov	 BYTE PTR tv285[rbp], al
  001a3	48 8b 8d a0 01
	00 00		 mov	 rcx, QWORD PTR _Ostr$[rbp]
  001aa	48 8b 09	 mov	 rcx, QWORD PTR [rcx]
  001ad	48 63 49 04	 movsxd	 rcx, DWORD PTR [rcx+4]
  001b1	48 8b 95 a0 01
	00 00		 mov	 rdx, QWORD PTR _Ostr$[rbp]
  001b8	48 03 d1	 add	 rdx, rcx
  001bb	48 8b ca	 mov	 rcx, rdx
  001be	ff 15 00 00 00
	00		 call	 QWORD PTR __imp_?rdbuf@?$basic_ios@DU?$char_traits@D@std@@@std@@QEBAPEAV?$basic_streambuf@DU?$char_traits@D@std@@@2@XZ
  001c4	0f b6 8d 64 01
	00 00		 movzx	 ecx, BYTE PTR tv285[rbp]
  001cb	0f b6 d1	 movzx	 edx, cl
  001ce	48 8b c8	 mov	 rcx, rax
  001d1	ff 15 00 00 00
	00		 call	 QWORD PTR __imp_?sputc@?$basic_streambuf@DU?$char_traits@D@std@@@std@@QEAAHD@Z
  001d7	89 85 68 01 00
	00		 mov	 DWORD PTR tv139[rbp], eax
  001dd	e8 00 00 00 00	 call	 ?eof@?$_Narrow_char_traits@DH@std@@SAHXZ ; std::_Narrow_char_traits<char,int>::eof
  001e2	8b 95 68 01 00
	00		 mov	 edx, DWORD PTR tv139[rbp]
  001e8	8b c8		 mov	 ecx, eax
  001ea	e8 00 00 00 00	 call	 ?eq_int_type@?$_Narrow_char_traits@DH@std@@SA_NHH@Z ; std::_Narrow_char_traits<char,int>::eq_int_type
  001ef	0f b6 c0	 movzx	 eax, al
  001f2	85 c0		 test	 eax, eax
  001f4	74 0b		 je	 SHORT $LN12@operator

; 785  :                     _State |= ios_base::badbit; // insertion failed, quit

  001f6	8b 45 04	 mov	 eax, DWORD PTR _State$[rbp]
  001f9	83 c8 04	 or	 eax, 4
  001fc	89 45 04	 mov	 DWORD PTR _State$[rbp], eax

; 786  :                     break;

  001ff	eb 05		 jmp	 SHORT $LN11@operator
$LN12@operator:

; 787  :                 }
; 788  :             }

  00201	e9 5d ff ff ff	 jmp	 $LN2@operator
$LN11@operator:

; 789  :         }
; 790  : 
; 791  :         if (_State == ios_base::goodbit && _Ostr.rdbuf()->sputn(_Val, _Count) != _Count) {

  00206	83 7d 04 00	 cmp	 DWORD PTR _State$[rbp], 0
  0020a	75 55		 jne	 SHORT $LN13@operator
  0020c	48 8b 85 a0 01
	00 00		 mov	 rax, QWORD PTR _Ostr$[rbp]
  00213	48 8b 00	 mov	 rax, QWORD PTR [rax]
  00216	48 63 40 04	 movsxd	 rax, DWORD PTR [rax+4]
  0021a	48 8b 8d a0 01
	00 00		 mov	 rcx, QWORD PTR _Ostr$[rbp]
  00221	48 03 c8	 add	 rcx, rax
  00224	48 8b c1	 mov	 rax, rcx
  00227	48 8b c8	 mov	 rcx, rax
  0022a	ff 15 00 00 00
	00		 call	 QWORD PTR __imp_?rdbuf@?$basic_ios@DU?$char_traits@D@std@@@std@@QEBAPEAV?$basic_streambuf@DU?$char_traits@D@std@@@2@XZ
  00230	4c 8b 45 28	 mov	 r8, QWORD PTR _Count$[rbp]
  00234	48 8b 95 a8 01
	00 00		 mov	 rdx, QWORD PTR _Val$[rbp]
  0023b	48 8b c8	 mov	 rcx, rax
  0023e	ff 15 00 00 00
	00		 call	 QWORD PTR __imp_?sputn@?$basic_streambuf@DU?$char_traits@D@std@@@std@@QEAA_JPEBD_J@Z
  00244	48 89 85 68 01
	00 00		 mov	 QWORD PTR tv295[rbp], rax
  0024b	48 8b 45 28	 mov	 rax, QWORD PTR _Count$[rbp]
  0024f	48 39 85 68 01
	00 00		 cmp	 QWORD PTR tv295[rbp], rax
  00256	74 09		 je	 SHORT $LN13@operator

; 792  :             _State |= ios_base::badbit;

  00258	8b 45 04	 mov	 eax, DWORD PTR _State$[rbp]
  0025b	83 c8 04	 or	 eax, 4
  0025e	89 45 04	 mov	 DWORD PTR _State$[rbp], eax
$LN13@operator:

; 793  :         }
; 794  : 
; 795  :         if (_State == ios_base::goodbit) {

  00261	83 7d 04 00	 cmp	 DWORD PTR _State$[rbp], 0
  00265	0f 85 a5 00 00
	00		 jne	 $LN14@operator

; 796  :             for (; 0 < _Pad; --_Pad) { // pad on right

  0026b	eb 0b		 jmp	 SHORT $LN7@operator
$LN5@operator:
  0026d	48 8b 45 48	 mov	 rax, QWORD PTR _Pad$[rbp]
  00271	48 ff c8	 dec	 rax
  00274	48 89 45 48	 mov	 QWORD PTR _Pad$[rbp], rax
$LN7@operator:
  00278	48 83 7d 48 00	 cmp	 QWORD PTR _Pad$[rbp], 0
  0027d	0f 8e 8d 00 00
	00		 jle	 $LN14@operator

; 797  :                 if (_Traits::eq_int_type(_Traits::eof(), _Ostr.rdbuf()->sputc(_Ostr.fill()))) {

  00283	48 8b 85 a0 01
	00 00		 mov	 rax, QWORD PTR _Ostr$[rbp]
  0028a	48 8b 00	 mov	 rax, QWORD PTR [rax]
  0028d	48 63 40 04	 movsxd	 rax, DWORD PTR [rax+4]
  00291	48 8b 8d a0 01
	00 00		 mov	 rcx, QWORD PTR _Ostr$[rbp]
  00298	48 03 c8	 add	 rcx, rax
  0029b	48 8b c1	 mov	 rax, rcx
  0029e	48 8b c8	 mov	 rcx, rax
  002a1	ff 15 00 00 00
	00		 call	 QWORD PTR __imp_?fill@?$basic_ios@DU?$char_traits@D@std@@@std@@QEBADXZ
  002a7	88 85 64 01 00
	00		 mov	 BYTE PTR tv283[rbp], al
  002ad	48 8b 8d a0 01
	00 00		 mov	 rcx, QWORD PTR _Ostr$[rbp]
  002b4	48 8b 09	 mov	 rcx, QWORD PTR [rcx]
  002b7	48 63 49 04	 movsxd	 rcx, DWORD PTR [rcx+4]
  002bb	48 8b 95 a0 01
	00 00		 mov	 rdx, QWORD PTR _Ostr$[rbp]
  002c2	48 03 d1	 add	 rdx, rcx
  002c5	48 8b ca	 mov	 rcx, rdx
  002c8	ff 15 00 00 00
	00		 call	 QWORD PTR __imp_?rdbuf@?$basic_ios@DU?$char_traits@D@std@@@std@@QEBAPEAV?$basic_streambuf@DU?$char_traits@D@std@@@2@XZ
  002ce	0f b6 8d 64 01
	00 00		 movzx	 ecx, BYTE PTR tv283[rbp]
  002d5	0f b6 d1	 movzx	 edx, cl
  002d8	48 8b c8	 mov	 rcx, rax
  002db	ff 15 00 00 00
	00		 call	 QWORD PTR __imp_?sputc@?$basic_streambuf@DU?$char_traits@D@std@@@std@@QEAAHD@Z
  002e1	89 85 68 01 00
	00		 mov	 DWORD PTR tv296[rbp], eax
  002e7	e8 00 00 00 00	 call	 ?eof@?$_Narrow_char_traits@DH@std@@SAHXZ ; std::_Narrow_char_traits<char,int>::eof
  002ec	8b 95 68 01 00
	00		 mov	 edx, DWORD PTR tv296[rbp]
  002f2	8b c8		 mov	 ecx, eax
  002f4	e8 00 00 00 00	 call	 ?eq_int_type@?$_Narrow_char_traits@DH@std@@SA_NHH@Z ; std::_Narrow_char_traits<char,int>::eq_int_type
  002f9	0f b6 c0	 movzx	 eax, al
  002fc	85 c0		 test	 eax, eax
  002fe	74 0b		 je	 SHORT $LN15@operator

; 798  :                     _State |= ios_base::badbit; // insertion failed, quit

  00300	8b 45 04	 mov	 eax, DWORD PTR _State$[rbp]
  00303	83 c8 04	 or	 eax, 4
  00306	89 45 04	 mov	 DWORD PTR _State$[rbp], eax

; 799  :                     break;

  00309	eb 05		 jmp	 SHORT $LN14@operator
$LN15@operator:

; 800  :                 }
; 801  :             }

  0030b	e9 5d ff ff ff	 jmp	 $LN5@operator
$LN14@operator:

; 802  :         }
; 803  : 
; 804  :         _Ostr.width(0);

  00310	48 8b 85 a0 01
	00 00		 mov	 rax, QWORD PTR _Ostr$[rbp]
  00317	48 8b 00	 mov	 rax, QWORD PTR [rax]
  0031a	48 63 40 04	 movsxd	 rax, DWORD PTR [rax+4]
  0031e	48 8b 8d a0 01
	00 00		 mov	 rcx, QWORD PTR _Ostr$[rbp]
  00325	48 03 c8	 add	 rcx, rax
  00328	48 8b c1	 mov	 rax, rcx
  0032b	33 d2		 xor	 edx, edx
  0032d	48 8b c8	 mov	 rcx, rax
  00330	ff 15 00 00 00
	00		 call	 QWORD PTR __imp_?width@ios_base@std@@QEAA_J_J@Z
  00336	90		 npad	 1
  00337	eb 00		 jmp	 SHORT $LN9@operator
$LN23@operator:
$LN9@operator:

; 805  :         _CATCH_IO_(ios_base, _Ostr)
; 806  :     }
; 807  : 
; 808  :     _Ostr.setstate(_State);

  00339	48 8b 85 a0 01
	00 00		 mov	 rax, QWORD PTR _Ostr$[rbp]
  00340	48 8b 00	 mov	 rax, QWORD PTR [rax]
  00343	48 63 40 04	 movsxd	 rax, DWORD PTR [rax+4]
  00347	48 8b 8d a0 01
	00 00		 mov	 rcx, QWORD PTR _Ostr$[rbp]
  0034e	48 03 c8	 add	 rcx, rax
  00351	48 8b c1	 mov	 rax, rcx
  00354	45 33 c0	 xor	 r8d, r8d
  00357	8b 55 04	 mov	 edx, DWORD PTR _State$[rbp]
  0035a	48 8b c8	 mov	 rcx, rax
  0035d	ff 15 00 00 00
	00		 call	 QWORD PTR __imp_?setstate@?$basic_ios@DU?$char_traits@D@std@@@std@@QEAAXH_N@Z
  00363	90		 npad	 1

; 809  :     return _Ostr;

  00364	48 8b 85 a0 01
	00 00		 mov	 rax, QWORD PTR _Ostr$[rbp]
  0036b	48 89 85 58 01
	00 00		 mov	 QWORD PTR $T4[rbp], rax
  00372	48 8d 4d 68	 lea	 rcx, QWORD PTR _Ok$[rbp]
  00376	e8 00 00 00 00	 call	 ??1sentry@?$basic_ostream@DU?$char_traits@D@std@@@std@@QEAA@XZ ; std::basic_ostream<char,std::char_traits<char> >::sentry::~sentry
  0037b	48 8b 85 58 01
	00 00		 mov	 rax, QWORD PTR $T4[rbp]

; 810  : }

  00382	48 8b f8	 mov	 rdi, rax
  00385	48 8d 4d e0	 lea	 rcx, QWORD PTR [rbp-32]
  00389	48 8d 15 00 00
	00 00		 lea	 rdx, OFFSET FLAT:??$?6U?$char_traits@D@std@@@std@@YAAEAV?$basic_ostream@DU?$char_traits@D@std@@@0@AEAV10@PEBD@Z$rtcFrameData
  00390	e8 00 00 00 00	 call	 _RTC_CheckStackVars
  00395	48 8b c7	 mov	 rax, rdi
  00398	48 8b 8d 70 01
	00 00		 mov	 rcx, QWORD PTR __$ArrayPad$[rbp]
  0039f	48 33 cd	 xor	 rcx, rbp
  003a2	e8 00 00 00 00	 call	 __security_check_cookie
  003a7	48 8d a5 88 01
	00 00		 lea	 rsp, QWORD PTR [rbp+392]
  003ae	5f		 pop	 rdi
  003af	5d		 pop	 rbp
  003b0	c3		 ret	 0
??$?6U?$char_traits@D@std@@@std@@YAAEAV?$basic_ostream@DU?$char_traits@D@std@@@0@AEAV10@PEBD@Z ENDP ; std::operator<<<std::char_traits<char> >
_TEXT	ENDS
; Function compile flags: /Odtp /RTCsu /ZI
;	COMDAT text$x
text$x	SEGMENT
_State$ = 4
_Count$ = 40
_Pad$ = 72
_Ok$ = 104
$T4 = 344
tv283 = 356
tv285 = 356
tv137 = 360
tv139 = 360
tv295 = 360
tv296 = 360
__$ArrayPad$ = 368
_Ostr$ = 416
_Val$ = 424
?dtor$0@?0???$?6U?$char_traits@D@std@@@std@@YAAEAV?$basic_ostream@DU?$char_traits@D@std@@@0@AEAV10@PEBD@Z@4HA PROC ; `std::operator<<<std::char_traits<char> >'::`1'::dtor$0
  00000	48 89 4c 24 08	 mov	 QWORD PTR [rsp+8], rcx
  00005	48 89 54 24 10	 mov	 QWORD PTR [rsp+16], rdx
  0000a	55		 push	 rbp
  0000b	57		 push	 rdi
  0000c	48 83 ec 28	 sub	 rsp, 40			; 00000028H
  00010	48 8d 6a 20	 lea	 rbp, QWORD PTR [rdx+32]
  00014	48 8d 4d 68	 lea	 rcx, QWORD PTR _Ok$[rbp]
  00018	e8 00 00 00 00	 call	 ??1sentry@?$basic_ostream@DU?$char_traits@D@std@@@std@@QEAA@XZ ; std::basic_ostream<char,std::char_traits<char> >::sentry::~sentry
  0001d	48 83 c4 28	 add	 rsp, 40			; 00000028H
  00021	5f		 pop	 rdi
  00022	5d		 pop	 rbp
  00023	c3		 ret	 0
?dtor$0@?0???$?6U?$char_traits@D@std@@@std@@YAAEAV?$basic_ostream@DU?$char_traits@D@std@@@0@AEAV10@PEBD@Z@4HA ENDP ; `std::operator<<<std::char_traits<char> >'::`1'::dtor$0
text$x	ENDS
; Function compile flags: /Odtp /RTCsu /ZI
;	COMDAT text$x
text$x	SEGMENT
_State$ = 4
_Count$ = 40
_Pad$ = 72
_Ok$ = 104
$T4 = 344
tv283 = 356
tv285 = 356
tv137 = 360
tv139 = 360
tv295 = 360
tv296 = 360
__$ArrayPad$ = 368
_Ostr$ = 416
_Val$ = 424
?catch$1@?0???$?6U?$char_traits@D@std@@@std@@YAAEAV?$basic_ostream@DU?$char_traits@D@std@@@0@AEAV10@PEBD@Z@4HA PROC ; `std::operator<<<std::char_traits<char> >'::`1'::catch$1

; 805  :         _CATCH_IO_(ios_base, _Ostr)

  00000	48 89 4c 24 08	 mov	 QWORD PTR [rsp+8], rcx
  00005	48 89 54 24 10	 mov	 QWORD PTR [rsp+16], rdx
  0000a	55		 push	 rbp
  0000b	57		 push	 rdi
  0000c	48 83 ec 28	 sub	 rsp, 40			; 00000028H
  00010	48 8d 6a 20	 lea	 rbp, QWORD PTR [rdx+32]
__catch$??$?6U?$char_traits@D@std@@@std@@YAAEAV?$basic_ostream@DU?$char_traits@D@std@@@0@AEAV10@PEBD@Z$0:
  00014	48 8b 85 a0 01
	00 00		 mov	 rax, QWORD PTR _Ostr$[rbp]
  0001b	48 8b 00	 mov	 rax, QWORD PTR [rax]
  0001e	48 63 40 04	 movsxd	 rax, DWORD PTR [rax+4]
  00022	48 8b 8d a0 01
	00 00		 mov	 rcx, QWORD PTR _Ostr$[rbp]
  00029	48 03 c8	 add	 rcx, rax
  0002c	48 8b c1	 mov	 rax, rcx
  0002f	41 b0 01	 mov	 r8b, 1
  00032	ba 04 00 00 00	 mov	 edx, 4
  00037	48 8b c8	 mov	 rcx, rax
  0003a	ff 15 00 00 00
	00		 call	 QWORD PTR __imp_?setstate@?$basic_ios@DU?$char_traits@D@std@@@std@@QEAAXH_N@Z
  00040	90		 npad	 1
  00041	48 8d 05 00 00
	00 00		 lea	 rax, $LN23@catch$1
  00048	48 83 c4 28	 add	 rsp, 40			; 00000028H
  0004c	5f		 pop	 rdi
  0004d	5d		 pop	 rbp
  0004e	c3		 ret	 0
  0004f	cc		 int	 3
?catch$1@?0???$?6U?$char_traits@D@std@@@std@@YAAEAV?$basic_ostream@DU?$char_traits@D@std@@@0@AEAV10@PEBD@Z@4HA ENDP ; `std::operator<<<std::char_traits<char> >'::`1'::catch$1
text$x	ENDS
; Function compile flags: /Odtp /RTCsu /ZI
; File C:\Users\ppeen\OneDrive\Desktop\unik\1 kurs 2 sem\kpo\lab1\lab_1\data.cpp
;	COMDAT ?poryd@@YAXHH@Z
_TEXT	SEGMENT
i$1 = 4
x$ = 256
z$ = 264
?poryd@@YAXHH@Z PROC					; poryd, COMDAT

; 20   : {

$LN6:
  00000	89 54 24 10	 mov	 DWORD PTR [rsp+16], edx
  00004	89 4c 24 08	 mov	 DWORD PTR [rsp+8], ecx
  00008	55		 push	 rbp
  00009	57		 push	 rdi
  0000a	48 81 ec 08 01
	00 00		 sub	 rsp, 264		; 00000108H
  00011	48 8d 6c 24 20	 lea	 rbp, QWORD PTR [rsp+32]
  00016	48 8d 0d 00 00
	00 00		 lea	 rcx, OFFSET FLAT:__D26B02B0_data@cpp
  0001d	e8 00 00 00 00	 call	 __CheckForDebuggerJustMyCode
  00022	90		 npad	 1

; 21   : 	
; 22   : 
; 23   : 	
; 24   : 		for (int i = 0; i < x- 1; i++)

  00023	c7 45 04 00 00
	00 00		 mov	 DWORD PTR i$1[rbp], 0
  0002a	eb 08		 jmp	 SHORT $LN4@poryd
$LN2@poryd:
  0002c	8b 45 04	 mov	 eax, DWORD PTR i$1[rbp]
  0002f	ff c0		 inc	 eax
  00031	89 45 04	 mov	 DWORD PTR i$1[rbp], eax
$LN4@poryd:
  00034	8b 85 00 01 00
	00		 mov	 eax, DWORD PTR x$[rbp]
  0003a	ff c8		 dec	 eax
  0003c	39 45 04	 cmp	 DWORD PTR i$1[rbp], eax
  0003f	7d 20		 jge	 SHORT $LN3@poryd

; 25   : 		{
; 26   : 			sum += month[i];

  00041	48 63 45 04	 movsxd	 rax, DWORD PTR i$1[rbp]
  00045	48 8d 0d 00 00
	00 00		 lea	 rcx, OFFSET FLAT:?month@@3PAHA ; month
  0004c	8b 04 81	 mov	 eax, DWORD PTR [rcx+rax*4]
  0004f	8b 0d 00 00 00
	00		 mov	 ecx, DWORD PTR ?sum@@3HA ; sum
  00055	03 c8		 add	 ecx, eax
  00057	8b c1		 mov	 eax, ecx
  00059	89 05 00 00 00
	00		 mov	 DWORD PTR ?sum@@3HA, eax ; sum

; 27   : 
; 28   : 		}

  0005f	eb cb		 jmp	 SHORT $LN2@poryd
$LN3@poryd:

; 29   : 	
; 30   : 	sum += z;

  00061	8b 85 08 01 00
	00		 mov	 eax, DWORD PTR z$[rbp]
  00067	8b 0d 00 00 00
	00		 mov	 ecx, DWORD PTR ?sum@@3HA ; sum
  0006d	03 c8		 add	 ecx, eax
  0006f	8b c1		 mov	 eax, ecx
  00071	89 05 00 00 00
	00		 mov	 DWORD PTR ?sum@@3HA, eax ; sum

; 31   : 	cout << "Ďîđ˙äęîâűé íîěĺđ äí˙:" << sum << endl;

  00077	48 8d 15 00 00
	00 00		 lea	 rdx, OFFSET FLAT:??_C@_0BG@BFIGPPKC@?O?n?p?$PP?d?j?n?b?$PL?i?5?m?n?l?e?p?5?d?m?$PP?3@
  0007e	48 8b 0d 00 00
	00 00		 mov	 rcx, QWORD PTR __imp_?cout@std@@3V?$basic_ostream@DU?$char_traits@D@std@@@1@A
  00085	e8 00 00 00 00	 call	 ??$?6U?$char_traits@D@std@@@std@@YAAEAV?$basic_ostream@DU?$char_traits@D@std@@@0@AEAV10@PEBD@Z ; std::operator<<<std::char_traits<char> >
  0008a	8b 15 00 00 00
	00		 mov	 edx, DWORD PTR ?sum@@3HA ; sum
  00090	48 8b c8	 mov	 rcx, rax
  00093	ff 15 00 00 00
	00		 call	 QWORD PTR __imp_??6?$basic_ostream@DU?$char_traits@D@std@@@std@@QEAAAEAV01@H@Z
  00099	48 8d 15 00 00
	00 00		 lea	 rdx, OFFSET FLAT:??$endl@DU?$char_traits@D@std@@@std@@YAAEAV?$basic_ostream@DU?$char_traits@D@std@@@0@AEAV10@@Z ; std::endl<char,std::char_traits<char> >
  000a0	48 8b c8	 mov	 rcx, rax
  000a3	ff 15 00 00 00
	00		 call	 QWORD PTR __imp_??6?$basic_ostream@DU?$char_traits@D@std@@@std@@QEAAAEAV01@P6AAEAV01@AEAV01@@Z@Z
  000a9	90		 npad	 1

; 32   : 	
; 33   : }

  000aa	48 8d a5 e8 00
	00 00		 lea	 rsp, QWORD PTR [rbp+232]
  000b1	5f		 pop	 rdi
  000b2	5d		 pop	 rbp
  000b3	c3		 ret	 0
?poryd@@YAXHH@Z ENDP					; poryd
_TEXT	ENDS
; Function compile flags: /Odtp /RTCsu /ZI
; File C:\Users\ppeen\OneDrive\Desktop\unik\1 kurs 2 sem\kpo\lab1\lab_1\data.cpp
;	COMDAT ?visok@@YAXH@Z
_TEXT	SEGMENT
x$ = 224
?visok@@YAXH@Z PROC					; visok, COMDAT

; 9    : {

$LN5:
  00000	89 4c 24 08	 mov	 DWORD PTR [rsp+8], ecx
  00004	55		 push	 rbp
  00005	57		 push	 rdi
  00006	48 81 ec e8 00
	00 00		 sub	 rsp, 232		; 000000e8H
  0000d	48 8d 6c 24 20	 lea	 rbp, QWORD PTR [rsp+32]
  00012	48 8d 0d 00 00
	00 00		 lea	 rcx, OFFSET FLAT:__D26B02B0_data@cpp
  00019	e8 00 00 00 00	 call	 __CheckForDebuggerJustMyCode
  0001e	90		 npad	 1

; 10   : 	if (x % 4 != 0)

  0001f	8b 85 e0 00 00
	00		 mov	 eax, DWORD PTR x$[rbp]
  00025	99		 cdq
  00026	83 e2 03	 and	 edx, 3
  00029	03 c2		 add	 eax, edx
  0002b	83 e0 03	 and	 eax, 3
  0002e	2b c2		 sub	 eax, edx
  00030	85 c0		 test	 eax, eax
  00032	74 09		 je	 SHORT $LN2@visok

; 11   : 	{
; 12   : 		
; 13   : 		vesok = false; 

  00034	c6 05 00 00 00
	00 00		 mov	 BYTE PTR ?vesok@@3_NA, 0 ; vesok

; 14   : 	}

  0003b	eb 28		 jmp	 SHORT $LN3@visok
$LN2@visok:

; 15   : 	else 
; 16   : 	{
; 17   : 		month[1] += 1;  }

  0003d	b8 04 00 00 00	 mov	 eax, 4
  00042	48 6b c0 01	 imul	 rax, rax, 1
  00046	48 8d 0d 00 00
	00 00		 lea	 rcx, OFFSET FLAT:?month@@3PAHA ; month
  0004d	8b 04 01	 mov	 eax, DWORD PTR [rcx+rax]
  00050	ff c0		 inc	 eax
  00052	b9 04 00 00 00	 mov	 ecx, 4
  00057	48 6b c9 01	 imul	 rcx, rcx, 1
  0005b	48 8d 15 00 00
	00 00		 lea	 rdx, OFFSET FLAT:?month@@3PAHA ; month
  00062	89 04 0a	 mov	 DWORD PTR [rdx+rcx], eax
$LN3@visok:

; 18   : }

  00065	48 8d a5 c8 00
	00 00		 lea	 rsp, QWORD PTR [rbp+200]
  0006c	5f		 pop	 rdi
  0006d	5d		 pop	 rbp
  0006e	c3		 ret	 0
?visok@@YAXH@Z ENDP					; visok
_TEXT	ENDS
; Function compile flags: /Odtp /RTCsu /ZI
; File C:\Program Files\Microsoft Visual Studio\2022\Community\VC\Tools\MSVC\14.44.35207\include\__msvc_string_view.hpp
;	COMDAT ?eof@?$_Narrow_char_traits@DH@std@@SAHXZ
_TEXT	SEGMENT
?eof@?$_Narrow_char_traits@DH@std@@SAHXZ PROC		; std::_Narrow_char_traits<char,int>::eof, COMDAT

; 529  :     _NODISCARD static constexpr int_type eof() noexcept {

$LN4:
  00000	40 55		 push	 rbp
  00002	57		 push	 rdi
  00003	48 81 ec e8 00
	00 00		 sub	 rsp, 232		; 000000e8H
  0000a	48 8d 6c 24 20	 lea	 rbp, QWORD PTR [rsp+32]
  0000f	48 8d 0d 00 00
	00 00		 lea	 rcx, OFFSET FLAT:__9C6F385E___msvc_string_view@hpp
  00016	e8 00 00 00 00	 call	 __CheckForDebuggerJustMyCode
  0001b	90		 npad	 1

; 530  :         return static_cast<int_type>(EOF);

  0001c	b8 ff ff ff ff	 mov	 eax, -1

; 531  :     }

  00021	48 8d a5 c8 00
	00 00		 lea	 rsp, QWORD PTR [rbp+200]
  00028	5f		 pop	 rdi
  00029	5d		 pop	 rbp
  0002a	c3		 ret	 0
?eof@?$_Narrow_char_traits@DH@std@@SAHXZ ENDP		; std::_Narrow_char_traits<char,int>::eof
_TEXT	ENDS
; Function compile flags: /Odtp /RTCsu /ZI
; File C:\Program Files\Microsoft Visual Studio\2022\Community\VC\Tools\MSVC\14.44.35207\include\__msvc_string_view.hpp
;	COMDAT ?eq_int_type@?$_Narrow_char_traits@DH@std@@SA_NHH@Z
_TEXT	SEGMENT
tv65 = 192
_Left$ = 240
_Right$ = 248
?eq_int_type@?$_Narrow_char_traits@DH@std@@SA_NHH@Z PROC ; std::_Narrow_char_traits<char,int>::eq_int_type, COMDAT

; 521  :     _NODISCARD static constexpr bool eq_int_type(const int_type _Left, const int_type _Right) noexcept {

$LN6:
  00000	89 54 24 10	 mov	 DWORD PTR [rsp+16], edx
  00004	89 4c 24 08	 mov	 DWORD PTR [rsp+8], ecx
  00008	55		 push	 rbp
  00009	57		 push	 rdi
  0000a	48 81 ec f8 00
	00 00		 sub	 rsp, 248		; 000000f8H
  00011	48 8d 6c 24 20	 lea	 rbp, QWORD PTR [rsp+32]
  00016	48 8d 0d 00 00
	00 00		 lea	 rcx, OFFSET FLAT:__9C6F385E___msvc_string_view@hpp
  0001d	e8 00 00 00 00	 call	 __CheckForDebuggerJustMyCode
  00022	90		 npad	 1

; 522  :         return _Left == _Right;

  00023	8b 85 f8 00 00
	00		 mov	 eax, DWORD PTR _Right$[rbp]
  00029	39 85 f0 00 00
	00		 cmp	 DWORD PTR _Left$[rbp], eax
  0002f	75 0c		 jne	 SHORT $LN3@eq_int_typ
  00031	c7 85 c0 00 00
	00 01 00 00 00	 mov	 DWORD PTR tv65[rbp], 1
  0003b	eb 0a		 jmp	 SHORT $LN4@eq_int_typ
$LN3@eq_int_typ:
  0003d	c7 85 c0 00 00
	00 00 00 00 00	 mov	 DWORD PTR tv65[rbp], 0
$LN4@eq_int_typ:
  00047	0f b6 85 c0 00
	00 00		 movzx	 eax, BYTE PTR tv65[rbp]

; 523  :     }

  0004e	48 8d a5 d8 00
	00 00		 lea	 rsp, QWORD PTR [rbp+216]
  00055	5f		 pop	 rdi
  00056	5d		 pop	 rbp
  00057	c3		 ret	 0
?eq_int_type@?$_Narrow_char_traits@DH@std@@SA_NHH@Z ENDP ; std::_Narrow_char_traits<char,int>::eq_int_type
_TEXT	ENDS
; Function compile flags: /Odtp /RTCsu /ZI
; File C:\Program Files\Microsoft Visual Studio\2022\Community\VC\Tools\MSVC\14.44.35207\include\__msvc_string_view.hpp
;	COMDAT ?length@?$_Narrow_char_traits@DH@std@@SA_KQEBD@Z
_TEXT	SEGMENT
_First$ = 224
?length@?$_Narrow_char_traits@DH@std@@SA_KQEBD@Z PROC	; std::_Narrow_char_traits<char,int>::length, COMDAT

; 443  :     _NODISCARD static _CONSTEXPR17 size_t length(_In_z_ const _Elem* const _First) noexcept /* strengthened */ {

$LN4:
  00000	48 89 4c 24 08	 mov	 QWORD PTR [rsp+8], rcx
  00005	55		 push	 rbp
  00006	57		 push	 rdi
  00007	48 81 ec e8 00
	00 00		 sub	 rsp, 232		; 000000e8H
  0000e	48 8d 6c 24 20	 lea	 rbp, QWORD PTR [rsp+32]
  00013	48 8d 0d 00 00
	00 00		 lea	 rcx, OFFSET FLAT:__9C6F385E___msvc_string_view@hpp
  0001a	e8 00 00 00 00	 call	 __CheckForDebuggerJustMyCode
  0001f	90		 npad	 1

; 444  :         // find length of null-terminated string
; 445  : #if _HAS_CXX17
; 446  : #ifdef __cpp_char8_t
; 447  :         if constexpr (is_same_v<_Elem, char8_t>) {
; 448  : #if _HAS_U8_INTRINSICS
; 449  :             return __builtin_u8strlen(_First);
; 450  : #else // ^^^ use u8 intrinsics / no u8 intrinsics vvv
; 451  :             return _Primary_char_traits::length(_First);
; 452  : #endif // ^^^ no u8 intrinsics ^^^
; 453  :         } else
; 454  : #endif // defined(__cpp_char8_t)
; 455  :         {
; 456  :             return __builtin_strlen(_First);
; 457  :         }
; 458  : #else // ^^^ _HAS_CXX17 / !_HAS_CXX17 vvv
; 459  :         return _CSTD strlen(reinterpret_cast<const char*>(_First));

  00020	48 8b 8d e0 00
	00 00		 mov	 rcx, QWORD PTR _First$[rbp]
  00027	e8 00 00 00 00	 call	 strlen

; 460  : #endif // ^^^ !_HAS_CXX17 ^^^
; 461  :     }

  0002c	48 8d a5 c8 00
	00 00		 lea	 rsp, QWORD PTR [rbp+200]
  00033	5f		 pop	 rdi
  00034	5d		 pop	 rbp
  00035	c3		 ret	 0
?length@?$_Narrow_char_traits@DH@std@@SA_KQEBD@Z ENDP	; std::_Narrow_char_traits<char,int>::length
_TEXT	ENDS
; Function compile flags: /Odtp /RTCsu /ZI
; File C:\Users\ppeen\OneDrive\Desktop\unik\1 kurs 2 sem\kpo\lab1\lab_1\data.cpp
;	COMDAT ?__empty_global_delete@@YAXPEAX_K@Z
_TEXT	SEGMENT
__formal$ = 224
__formal$ = 232
?__empty_global_delete@@YAXPEAX_K@Z PROC		; __empty_global_delete, COMDAT

$LN3:
  00000	48 89 54 24 10	 mov	 QWORD PTR [rsp+16], rdx
  00005	48 89 4c 24 08	 mov	 QWORD PTR [rsp+8], rcx
  0000a	55		 push	 rbp
  0000b	57		 push	 rdi
  0000c	48 81 ec e8 00
	00 00		 sub	 rsp, 232		; 000000e8H
  00013	48 8d 6c 24 20	 lea	 rbp, QWORD PTR [rsp+32]
  00018	48 8d 0d 00 00
	00 00		 lea	 rcx, OFFSET FLAT:__D26B02B0_data@cpp
  0001f	e8 00 00 00 00	 call	 __CheckForDebuggerJustMyCode
  00024	90		 npad	 1
  00025	48 8d a5 c8 00
	00 00		 lea	 rsp, QWORD PTR [rbp+200]
  0002c	5f		 pop	 rdi
  0002d	5d		 pop	 rbp
  0002e	c3		 ret	 0
?__empty_global_delete@@YAXPEAX_K@Z ENDP		; __empty_global_delete
_TEXT	ENDS
; Function compile flags: /Odtp /RTCsu /ZI
; File C:\Users\ppeen\OneDrive\Desktop\unik\1 kurs 2 sem\kpo\lab1\lab_1\data.cpp
;	COMDAT ?__empty_global_delete@@YAXPEAX@Z
_TEXT	SEGMENT
__formal$ = 224
?__empty_global_delete@@YAXPEAX@Z PROC			; __empty_global_delete, COMDAT

$LN3:
  00000	48 89 4c 24 08	 mov	 QWORD PTR [rsp+8], rcx
  00005	55		 push	 rbp
  00006	57		 push	 rdi
  00007	48 81 ec e8 00
	00 00		 sub	 rsp, 232		; 000000e8H
  0000e	48 8d 6c 24 20	 lea	 rbp, QWORD PTR [rsp+32]
  00013	48 8d 0d 00 00
	00 00		 lea	 rcx, OFFSET FLAT:__D26B02B0_data@cpp
  0001a	e8 00 00 00 00	 call	 __CheckForDebuggerJustMyCode
  0001f	90		 npad	 1
  00020	48 8d a5 c8 00
	00 00		 lea	 rsp, QWORD PTR [rbp+200]
  00027	5f		 pop	 rdi
  00028	5d		 pop	 rbp
  00029	c3		 ret	 0
?__empty_global_delete@@YAXPEAX@Z ENDP			; __empty_global_delete
_TEXT	ENDS
END
